	.text
	.file	"hisi-blk-dump.c"
                                        // Start of file scope inline assembly
	.section "___kcrctab+blk_mq_tagset_dump_register", "a"	
	.weak	__crc_blk_mq_tagset_dump_register	
	.long	__crc_blk_mq_tagset_dump_register	
	.previous					
	.section "___kcrctab+blk_queue_dump_register", "a"	
	.weak	__crc_blk_queue_dump_register	
	.long	__crc_blk_queue_dump_register	
	.previous					

                                        // End of file scope inline assembly
	.file	1 "/mnt/disk/jenkins/ci/workspace/chipset_pipeline_release/opensource/component_code/vendor/huawei/extra/build/build_script/kirin_kernel_release/kernel/include/linux/export.h"
	.file	2 "/mnt/disk/jenkins/ci/workspace/chipset_pipeline_release/opensource/component_code/vendor/huawei/extra/build/build_script/kirin_kernel_release/kernel/block/hisi-blk-dump.c"
	.file	3 "/mnt/disk/jenkins/ci/workspace/chipset_pipeline_release/opensource/component_code/vendor/huawei/extra/build/build_script/kirin_kernel_release/kernel/include/asm-generic/int-ll64.h"
	.file	4 "/mnt/disk/jenkins/ci/workspace/chipset_pipeline_release/opensource/component_code/vendor/huawei/extra/build/build_script/kirin_kernel_release/kernel/arch/arm64/include/asm/spinlock_types.h"
	.file	5 "/mnt/disk/jenkins/ci/workspace/chipset_pipeline_release/opensource/component_code/vendor/huawei/extra/build/build_script/kirin_kernel_release/kernel/include/linux/spinlock_types.h"
	.file	6 "/mnt/disk/jenkins/ci/workspace/chipset_pipeline_release/opensource/component_code/vendor/huawei/extra/build/build_script/kirin_kernel_release/kernel/include/linux/types.h"
	.file	7 "/mnt/disk/jenkins/ci/workspace/chipset_pipeline_release/opensource/component_code/vendor/huawei/extra/build/build_script/kirin_kernel_release/kernel/include/linux/notifier.h"
	.file	8 "/mnt/disk/jenkins/ci/workspace/chipset_pipeline_release/opensource/component_code/vendor/huawei/extra/build/build_script/kirin_kernel_release/kernel/include/linux/blk_types.h"
	.file	9 "/mnt/disk/jenkins/ci/workspace/chipset_pipeline_release/opensource/component_code/vendor/huawei/extra/build/build_script/kirin_kernel_release/kernel/include/linux/elevator.h"
	.file	10 "/mnt/disk/jenkins/ci/workspace/chipset_pipeline_release/opensource/component_code/vendor/huawei/extra/build/build_script/kirin_kernel_release/kernel/include/linux/kobject_ns.h"
	.file	11 "/mnt/disk/jenkins/ci/workspace/chipset_pipeline_release/opensource/component_code/vendor/huawei/extra/build/build_script/kirin_kernel_release/kernel/include/linux/hrtimer.h"
	.file	12 "/mnt/disk/jenkins/ci/workspace/chipset_pipeline_release/opensource/component_code/vendor/huawei/extra/build/build_script/kirin_kernel_release/kernel/include/linux/module.h"
	.file	13 "/mnt/disk/jenkins/ci/workspace/chipset_pipeline_release/opensource/component_code/vendor/huawei/extra/build/build_script/kirin_kernel_release/kernel/include/linux/quota.h"
	.file	14 "/mnt/disk/jenkins/ci/workspace/chipset_pipeline_release/opensource/component_code/vendor/huawei/extra/build/build_script/kirin_kernel_release/kernel/include/linux/rcu_sync.h"
	.file	15 "/mnt/disk/jenkins/ci/workspace/chipset_pipeline_release/opensource/component_code/vendor/huawei/extra/build/build_script/kirin_kernel_release/kernel/include/linux/fs.h"
	.file	16 "/mnt/disk/jenkins/ci/workspace/chipset_pipeline_release/opensource/component_code/vendor/huawei/extra/build/build_script/kirin_kernel_release/kernel/include/linux/pid.h"
	.file	17 "/mnt/disk/jenkins/ci/workspace/chipset_pipeline_release/opensource/component_code/vendor/huawei/extra/build/build_script/kirin_kernel_release/kernel/include/linux/migrate_mode.h"
	.file	18 "/mnt/disk/jenkins/ci/workspace/chipset_pipeline_release/opensource/component_code/vendor/huawei/extra/build/build_script/kirin_kernel_release/kernel/include/linux/memremap.h"
	.file	19 "/mnt/disk/jenkins/ci/workspace/chipset_pipeline_release/opensource/component_code/vendor/huawei/extra/build/build_script/kirin_kernel_release/kernel/include/linux/mm.h"
	.file	20 "/mnt/disk/jenkins/ci/workspace/chipset_pipeline_release/opensource/component_code/vendor/huawei/extra/build/build_script/kirin_kernel_release/kernel/include/linux/restart_block.h"
	.file	21 "/mnt/disk/jenkins/ci/workspace/chipset_pipeline_release/opensource/component_code/vendor/huawei/extra/build/build_script/kirin_kernel_release/kernel/include/linux/device.h"
	.file	22 "/mnt/disk/jenkins/ci/workspace/chipset_pipeline_release/opensource/component_code/vendor/huawei/extra/build/build_script/kirin_kernel_release/kernel/include/linux/pm.h"
	.file	23 "/mnt/disk/jenkins/ci/workspace/chipset_pipeline_release/opensource/component_code/vendor/huawei/extra/build/build_script/kirin_kernel_release/kernel/include/linux/blkdev.h"
	.file	24 "/mnt/disk/jenkins/ci/workspace/chipset_pipeline_release/opensource/component_code/vendor/huawei/extra/build/build_script/kirin_kernel_release/kernel/block/hisi-blk.h"
	.file	25 "/mnt/disk/jenkins/ci/workspace/chipset_pipeline_release/opensource/component_code/vendor/huawei/extra/build/build_script/kirin_kernel_release/kernel/include/linux/stddef.h"
	.file	26 "/mnt/disk/jenkins/ci/workspace/chipset_pipeline_release/opensource/component_code/vendor/huawei/extra/build/build_script/kirin_kernel_release/kernel/include/uapi/asm-generic/posix_types.h"
	.file	27 "/mnt/disk/jenkins/ci/workspace/chipset_pipeline_release/opensource/component_code/vendor/huawei/extra/build/build_script/kirin_kernel_release/kernel/include/linux/genhd.h"
	.file	28 "/mnt/disk/jenkins/ci/workspace/chipset_pipeline_release/opensource/component_code/vendor/huawei/extra/build/build_script/kirin_kernel_release/kernel/include/linux/seqlock.h"
	.file	29 "/mnt/disk/jenkins/ci/workspace/chipset_pipeline_release/opensource/component_code/vendor/huawei/extra/build/build_script/kirin_kernel_release/kernel/include/linux/kobject.h"
	.file	30 "/mnt/disk/jenkins/ci/workspace/chipset_pipeline_release/opensource/component_code/vendor/huawei/extra/build/build_script/kirin_kernel_release/kernel/include/linux/sysfs.h"
	.file	31 "/mnt/disk/jenkins/ci/workspace/chipset_pipeline_release/opensource/component_code/vendor/huawei/extra/build/build_script/kirin_kernel_release/kernel/include/linux/kernfs.h"
	.file	32 "/mnt/disk/jenkins/ci/workspace/chipset_pipeline_release/opensource/component_code/vendor/huawei/extra/build/build_script/kirin_kernel_release/kernel/include/linux/rbtree.h"
	.file	33 "/mnt/disk/jenkins/ci/workspace/chipset_pipeline_release/opensource/component_code/vendor/huawei/extra/build/build_script/kirin_kernel_release/kernel/include/linux/radix-tree.h"
	.file	34 "/mnt/disk/jenkins/ci/workspace/chipset_pipeline_release/opensource/component_code/vendor/huawei/extra/build/build_script/kirin_kernel_release/kernel/include/linux/idr.h"
	.file	35 "/mnt/disk/jenkins/ci/workspace/chipset_pipeline_release/opensource/component_code/vendor/huawei/extra/build/build_script/kirin_kernel_release/kernel/include/linux/seq_file.h"
	.file	36 "/mnt/disk/jenkins/ci/workspace/chipset_pipeline_release/opensource/component_code/vendor/huawei/extra/build/build_script/kirin_kernel_release/kernel/include/asm-generic/atomic-long.h"
	.file	37 "/mnt/disk/jenkins/ci/workspace/chipset_pipeline_release/opensource/component_code/vendor/huawei/extra/build/build_script/kirin_kernel_release/kernel/include/linux/mutex.h"
	.file	38 "/mnt/disk/jenkins/ci/workspace/chipset_pipeline_release/opensource/component_code/vendor/huawei/extra/build/build_script/kirin_kernel_release/kernel/include/linux/osq_lock.h"
	.file	39 "/mnt/disk/jenkins/ci/workspace/chipset_pipeline_release/opensource/component_code/vendor/huawei/extra/build/build_script/kirin_kernel_release/kernel/arch/arm64/include/asm/thread_info.h"
	.file	40 "/mnt/disk/jenkins/ci/workspace/chipset_pipeline_release/opensource/component_code/vendor/huawei/extra/build/build_script/kirin_kernel_release/kernel/include/linux/sched.h"
	.file	41 "/mnt/disk/jenkins/ci/workspace/chipset_pipeline_release/opensource/component_code/vendor/huawei/extra/build/build_script/kirin_kernel_release/kernel/include/linux/llist.h"
	.file	42 "/mnt/disk/jenkins/ci/workspace/chipset_pipeline_release/opensource/component_code/vendor/huawei/extra/build/build_script/kirin_kernel_release/kernel/include/linux/cpumask.h"
	.file	43 "/mnt/disk/jenkins/ci/workspace/chipset_pipeline_release/opensource/component_code/vendor/huawei/extra/build/build_script/kirin_kernel_release/kernel/include/linux/timerqueue.h"
	.file	44 "/mnt/disk/jenkins/ci/workspace/chipset_pipeline_release/opensource/component_code/vendor/huawei/extra/build/build_script/kirin_kernel_release/kernel/include/linux/ktime.h"
	.file	45 "/mnt/disk/jenkins/ci/workspace/chipset_pipeline_release/opensource/component_code/vendor/huawei/extra/build/build_script/kirin_kernel_release/kernel/include/linux/plist.h"
	.file	46 "/mnt/disk/jenkins/ci/workspace/chipset_pipeline_release/opensource/component_code/vendor/huawei/extra/build/build_script/kirin_kernel_release/kernel/include/linux/mm_types.h"
	.file	47 "/mnt/disk/jenkins/ci/workspace/chipset_pipeline_release/opensource/component_code/vendor/huawei/extra/build/build_script/kirin_kernel_release/kernel/arch/arm64/include/asm/pgtable-types.h"
	.file	48 "/mnt/disk/jenkins/ci/workspace/chipset_pipeline_release/opensource/component_code/vendor/huawei/extra/build/build_script/kirin_kernel_release/kernel/include/asm-generic/pgtable-nop4d-hack.h"
	.file	49 "/mnt/disk/jenkins/ci/workspace/chipset_pipeline_release/opensource/component_code/vendor/huawei/extra/build/build_script/kirin_kernel_release/kernel/include/linux/uidgid.h"
	.file	50 "/mnt/disk/jenkins/ci/workspace/chipset_pipeline_release/opensource/component_code/vendor/huawei/extra/build/build_script/kirin_kernel_release/kernel/include/linux/dcache.h"
	.file	51 "/mnt/disk/jenkins/ci/workspace/chipset_pipeline_release/opensource/component_code/vendor/huawei/extra/build/build_script/kirin_kernel_release/kernel/include/linux/list_bl.h"
	.file	52 "/mnt/disk/jenkins/ci/workspace/chipset_pipeline_release/opensource/component_code/vendor/huawei/extra/build/build_script/kirin_kernel_release/kernel/include/linux/lockref.h"
	.file	53 "/mnt/disk/jenkins/ci/workspace/chipset_pipeline_release/opensource/component_code/vendor/huawei/extra/build/build_script/kirin_kernel_release/kernel/include/linux/path.h"
	.file	54 "/mnt/disk/jenkins/ci/workspace/chipset_pipeline_release/opensource/component_code/vendor/huawei/extra/build/build_script/kirin_kernel_release/kernel/include/uapi/asm-generic/int-ll64.h"
	.file	55 "/mnt/disk/jenkins/ci/workspace/chipset_pipeline_release/opensource/component_code/vendor/huawei/extra/build/build_script/kirin_kernel_release/kernel/include/linux/completion.h"
	.file	56 "/mnt/disk/jenkins/ci/workspace/chipset_pipeline_release/opensource/component_code/vendor/huawei/extra/build/build_script/kirin_kernel_release/kernel/include/linux/wait.h"
	.file	57 "/mnt/disk/jenkins/ci/workspace/chipset_pipeline_release/opensource/component_code/vendor/huawei/extra/build/build_script/kirin_kernel_release/kernel/include/linux/cfi.h"
	.file	58 "/mnt/disk/jenkins/ci/workspace/chipset_pipeline_release/opensource/component_code/vendor/huawei/extra/build/build_script/kirin_kernel_release/kernel/include/linux/moduleparam.h"
	.file	59 "/mnt/disk/jenkins/ci/workspace/chipset_pipeline_release/opensource/component_code/vendor/huawei/extra/build/build_script/kirin_kernel_release/kernel/arch/arm64/include/asm/extable.h"
	.file	60 "/mnt/disk/jenkins/ci/workspace/chipset_pipeline_release/opensource/component_code/vendor/huawei/extra/build/build_script/kirin_kernel_release/kernel/include/linux/rbtree_latch.h"
	.file	61 "/mnt/disk/jenkins/ci/workspace/chipset_pipeline_release/opensource/component_code/vendor/huawei/extra/build/build_script/kirin_kernel_release/kernel/include/uapi/linux/elf.h"
	.file	62 "/mnt/disk/jenkins/ci/workspace/chipset_pipeline_release/opensource/component_code/vendor/huawei/extra/build/build_script/kirin_kernel_release/kernel/arch/arm64/include/asm/module.h"
	.file	63 "/mnt/disk/jenkins/ci/workspace/chipset_pipeline_release/opensource/component_code/vendor/huawei/extra/build/build_script/kirin_kernel_release/kernel/include/uapi/linux/types.h"
	.file	64 "/mnt/disk/jenkins/ci/workspace/chipset_pipeline_release/opensource/component_code/vendor/huawei/extra/build/build_script/kirin_kernel_release/kernel/include/asm-generic/bug.h"
	.file	65 "/mnt/disk/jenkins/ci/workspace/chipset_pipeline_release/opensource/component_code/vendor/huawei/extra/build/build_script/kirin_kernel_release/kernel/include/linux/tracepoint-defs.h"
	.file	66 "/mnt/disk/jenkins/ci/workspace/chipset_pipeline_release/opensource/component_code/vendor/huawei/extra/build/build_script/kirin_kernel_release/kernel/include/linux/jump_label.h"
	.file	67 "/mnt/disk/jenkins/ci/workspace/chipset_pipeline_release/opensource/component_code/vendor/huawei/extra/build/build_script/kirin_kernel_release/kernel/include/linux/lockdep.h"
	.file	68 "/mnt/disk/jenkins/ci/workspace/chipset_pipeline_release/opensource/component_code/vendor/huawei/extra/build/build_script/kirin_kernel_release/kernel/include/linux/projid.h"
	.file	69 "/mnt/disk/jenkins/ci/workspace/chipset_pipeline_release/opensource/component_code/vendor/huawei/extra/build/build_script/kirin_kernel_release/kernel/include/linux/time64.h"
	.file	70 "/mnt/disk/jenkins/ci/workspace/chipset_pipeline_release/opensource/component_code/vendor/huawei/extra/build/build_script/kirin_kernel_release/kernel/include/linux/shrinker.h"
	.file	71 "/mnt/disk/jenkins/ci/workspace/chipset_pipeline_release/opensource/component_code/vendor/huawei/extra/build/build_script/kirin_kernel_release/kernel/include/linux/rwsem.h"
	.file	72 "/mnt/disk/jenkins/ci/workspace/chipset_pipeline_release/opensource/component_code/vendor/huawei/extra/build/build_script/kirin_kernel_release/kernel/include/linux/smp.h"
	.file	73 "/mnt/disk/jenkins/ci/workspace/chipset_pipeline_release/opensource/component_code/vendor/huawei/extra/build/build_script/kirin_kernel_release/kernel/block/blk-mq.h"
	.file	74 "/mnt/disk/jenkins/ci/workspace/chipset_pipeline_release/opensource/component_code/vendor/huawei/extra/build/build_script/kirin_kernel_release/kernel/include/linux/bvec.h"
	.file	75 "/mnt/disk/jenkins/ci/workspace/chipset_pipeline_release/opensource/component_code/vendor/huawei/extra/build/build_script/kirin_kernel_release/kernel/include/linux/timer.h"
	.file	76 "/mnt/disk/jenkins/ci/workspace/chipset_pipeline_release/opensource/component_code/vendor/huawei/extra/build/build_script/kirin_kernel_release/kernel/include/uapi/linux/time.h"
	.file	77 "/mnt/disk/jenkins/ci/workspace/chipset_pipeline_release/opensource/component_code/vendor/huawei/extra/build/build_script/kirin_kernel_release/kernel/include/linux/iocontext.h"
	.file	78 "/mnt/disk/jenkins/ci/workspace/chipset_pipeline_release/opensource/component_code/vendor/huawei/extra/build/build_script/kirin_kernel_release/kernel/include/linux/workqueue.h"
	.file	79 "/mnt/disk/jenkins/ci/workspace/chipset_pipeline_release/opensource/component_code/vendor/huawei/extra/build/build_script/kirin_kernel_release/kernel/include/linux/bio.h"
	.file	80 "/mnt/disk/jenkins/ci/workspace/chipset_pipeline_release/opensource/component_code/vendor/huawei/extra/build/build_script/kirin_kernel_release/kernel/include/linux/mempool.h"
	.file	81 "/mnt/disk/jenkins/ci/workspace/chipset_pipeline_release/opensource/component_code/vendor/huawei/extra/build/build_script/kirin_kernel_release/kernel/include/linux/blk-mq.h"
	.file	82 "/mnt/disk/jenkins/ci/workspace/chipset_pipeline_release/opensource/component_code/vendor/huawei/extra/build/build_script/kirin_kernel_release/kernel/block/blk.h"
	.file	83 "/mnt/disk/jenkins/ci/workspace/chipset_pipeline_release/opensource/component_code/vendor/huawei/extra/build/build_script/kirin_kernel_release/kernel/include/linux/sbitmap.h"
	.file	84 "/mnt/disk/jenkins/ci/workspace/chipset_pipeline_release/opensource/component_code/vendor/huawei/extra/build/build_script/kirin_kernel_release/kernel/block/blk-mq-tag.h"
	.file	85 "/mnt/disk/jenkins/ci/workspace/chipset_pipeline_release/opensource/component_code/vendor/huawei/extra/build/build_script/kirin_kernel_release/kernel/include/linux/srcutree.h"
	.file	86 "/mnt/disk/jenkins/ci/workspace/chipset_pipeline_release/opensource/component_code/vendor/huawei/extra/build/build_script/kirin_kernel_release/kernel/include/linux/rcu_segcblist.h"
	.file	87 "/mnt/disk/jenkins/ci/workspace/chipset_pipeline_release/opensource/component_code/vendor/huawei/extra/build/build_script/kirin_kernel_release/kernel/include/linux/backing-dev-defs.h"
	.file	88 "/mnt/disk/jenkins/ci/workspace/chipset_pipeline_release/opensource/component_code/vendor/huawei/extra/build/build_script/kirin_kernel_release/kernel/include/linux/refcount.h"
	.file	89 "/mnt/disk/jenkins/ci/workspace/chipset_pipeline_release/opensource/component_code/vendor/huawei/extra/build/build_script/kirin_kernel_release/kernel/include/linux/kref.h"
	.file	90 "/mnt/disk/jenkins/ci/workspace/chipset_pipeline_release/opensource/component_code/vendor/huawei/extra/build/build_script/kirin_kernel_release/kernel/include/linux/percpu_counter.h"
	.file	91 "/mnt/disk/jenkins/ci/workspace/chipset_pipeline_release/opensource/component_code/vendor/huawei/extra/build/build_script/kirin_kernel_release/kernel/include/linux/flex_proportions.h"
	.file	92 "/mnt/disk/jenkins/ci/workspace/chipset_pipeline_release/opensource/component_code/vendor/huawei/extra/build/build_script/kirin_kernel_release/kernel/include/linux/percpu-refcount.h"
	.file	93 "/mnt/disk/jenkins/ci/workspace/chipset_pipeline_release/opensource/component_code/vendor/huawei/extra/build/build_script/kirin_kernel_release/kernel/block/blk-stat.h"
	.file	94 "/mnt/disk/jenkins/ci/workspace/chipset_pipeline_release/opensource/component_code/vendor/huawei/extra/build/build_script/kirin_kernel_release/kernel/include/linux/bsg.h"
	.file	95 "/mnt/disk/jenkins/ci/workspace/chipset_pipeline_release/opensource/component_code/vendor/huawei/extra/build/build_script/kirin_kernel_release/kernel/include/linux/percpu-rwsem.h"
	.file	96 "/mnt/disk/jenkins/ci/workspace/chipset_pipeline_release/opensource/component_code/vendor/huawei/extra/build/build_script/kirin_kernel_release/kernel/include/linux/rcuwait.h"
	.file	97 "/mnt/disk/jenkins/ci/workspace/chipset_pipeline_release/opensource/component_code/vendor/huawei/extra/build/build_script/kirin_kernel_release/kernel/include/linux/uuid.h"
	.file	98 "/mnt/disk/jenkins/ci/workspace/chipset_pipeline_release/opensource/component_code/vendor/huawei/extra/build/build_script/kirin_kernel_release/kernel/include/linux/list_lru.h"
	.file	99 "/mnt/disk/jenkins/ci/workspace/chipset_pipeline_release/opensource/component_code/vendor/huawei/extra/build/build_script/kirin_kernel_release/kernel/include/linux/delayed_call.h"
	.file	100 "/mnt/disk/jenkins/ci/workspace/chipset_pipeline_release/opensource/component_code/vendor/huawei/extra/build/build_script/kirin_kernel_release/kernel/include/linux/nfs_fs_i.h"
	.file	101 "/mnt/disk/jenkins/ci/workspace/chipset_pipeline_release/opensource/component_code/vendor/huawei/extra/build/build_script/kirin_kernel_release/kernel/include/linux/rwlock_types.h"
	.file	102 "/mnt/disk/jenkins/ci/workspace/chipset_pipeline_release/opensource/component_code/vendor/huawei/extra/build/build_script/kirin_kernel_release/kernel/include/linux/cred.h"
	.file	103 "/mnt/disk/jenkins/ci/workspace/chipset_pipeline_release/opensource/component_code/vendor/huawei/extra/build/build_script/kirin_kernel_release/kernel/include/linux/capability.h"
	.file	104 "/mnt/disk/jenkins/ci/workspace/chipset_pipeline_release/opensource/component_code/vendor/huawei/extra/build/build_script/kirin_kernel_release/kernel/include/linux/key.h"
	.file	105 "/mnt/disk/jenkins/ci/workspace/chipset_pipeline_release/opensource/component_code/vendor/huawei/extra/build/build_script/kirin_kernel_release/kernel/include/linux/assoc_array.h"
	.file	106 "/mnt/disk/jenkins/ci/workspace/chipset_pipeline_release/opensource/component_code/vendor/huawei/extra/build/build_script/kirin_kernel_release/kernel/include/linux/sched/user.h"
	.file	107 "/mnt/disk/jenkins/ci/workspace/chipset_pipeline_release/opensource/component_code/vendor/huawei/extra/build/build_script/kirin_kernel_release/kernel/include/linux/errseq.h"
	.file	108 "/mnt/disk/jenkins/ci/workspace/chipset_pipeline_release/opensource/component_code/vendor/huawei/extra/build/build_script/kirin_kernel_release/kernel/include/linux/stat.h"
	.file	109 "/mnt/disk/jenkins/ci/workspace/chipset_pipeline_release/opensource/component_code/vendor/huawei/extra/build/build_script/kirin_kernel_release/kernel/include/uapi/linux/fiemap.h"
	.file	110 "/mnt/disk/jenkins/ci/workspace/chipset_pipeline_release/opensource/component_code/vendor/huawei/extra/build/build_script/kirin_kernel_release/kernel/include/linux/mmzone.h"
	.file	111 "/mnt/disk/jenkins/ci/workspace/chipset_pipeline_release/opensource/component_code/vendor/huawei/extra/build/build_script/kirin_kernel_release/kernel/include/linux/ioport.h"
	.file	112 "/mnt/disk/jenkins/ci/workspace/chipset_pipeline_release/opensource/component_code/vendor/huawei/extra/build/build_script/kirin_kernel_release/kernel/arch/arm64/include/asm/page.h"
	.file	113 "/mnt/disk/jenkins/ci/workspace/chipset_pipeline_release/opensource/component_code/vendor/huawei/extra/build/build_script/kirin_kernel_release/kernel/include/linux/mm_types_task.h"
	.file	114 "/mnt/disk/jenkins/ci/workspace/chipset_pipeline_release/opensource/component_code/vendor/huawei/extra/build/build_script/kirin_kernel_release/kernel/arch/arm64/include/asm/mmu.h"
	.file	115 "/mnt/disk/jenkins/ci/workspace/chipset_pipeline_release/opensource/component_code/vendor/huawei/extra/build/build_script/kirin_kernel_release/kernel/include/linux/uprobes.h"
	.file	116 "/mnt/disk/jenkins/ci/workspace/chipset_pipeline_release/opensource/component_code/vendor/huawei/extra/build/build_script/kirin_kernel_release/kernel/arch/arm64/include/asm/compat.h"
	.file	117 "/mnt/disk/jenkins/ci/workspace/chipset_pipeline_release/opensource/component_code/vendor/huawei/extra/build/build_script/kirin_kernel_release/kernel/include/uapi/asm-generic/signal.h"
	.file	118 "/mnt/disk/jenkins/ci/workspace/chipset_pipeline_release/opensource/component_code/vendor/huawei/extra/build/build_script/kirin_kernel_release/kernel/include/linux/signal_types.h"
	.file	119 "/mnt/disk/jenkins/ci/workspace/chipset_pipeline_release/opensource/component_code/vendor/huawei/extra/build/build_script/kirin_kernel_release/kernel/include/linux/seccomp.h"
	.file	120 "/mnt/disk/jenkins/ci/workspace/chipset_pipeline_release/opensource/component_code/vendor/huawei/extra/build/build_script/kirin_kernel_release/kernel/include/uapi/asm-generic/siginfo.h"
	.file	121 "/mnt/disk/jenkins/ci/workspace/chipset_pipeline_release/opensource/component_code/vendor/huawei/extra/build/build_script/kirin_kernel_release/kernel/include/linux/task_io_accounting.h"
	.file	122 "/mnt/disk/jenkins/ci/workspace/chipset_pipeline_release/opensource/component_code/vendor/huawei/extra/build/build_script/kirin_kernel_release/kernel/include/linux/nodemask.h"
	.file	123 "/mnt/disk/jenkins/ci/workspace/chipset_pipeline_release/opensource/component_code/vendor/huawei/extra/build/build_script/kirin_kernel_release/kernel/arch/arm64/include/asm/processor.h"
	.file	124 "/mnt/disk/jenkins/ci/workspace/chipset_pipeline_release/opensource/component_code/vendor/huawei/extra/build/build_script/kirin_kernel_release/kernel/arch/arm64/include/uapi/asm/ptrace.h"
	.file	125 "/mnt/disk/jenkins/ci/workspace/chipset_pipeline_release/opensource/component_code/vendor/huawei/extra/build/build_script/kirin_kernel_release/kernel/arch/arm64/include/asm/fpsimd.h"
	.file	126 "/mnt/disk/jenkins/ci/workspace/chipset_pipeline_release/opensource/component_code/vendor/huawei/extra/build/build_script/kirin_kernel_release/kernel/include/linux/pm_wakeup.h"
	.file	127 "/mnt/disk/jenkins/ci/workspace/chipset_pipeline_release/opensource/component_code/vendor/huawei/extra/build/build_script/kirin_kernel_release/kernel/include/linux/pinctrl/devinfo.h"
	.file	128 "/mnt/disk/jenkins/ci/workspace/chipset_pipeline_release/opensource/component_code/vendor/huawei/extra/build/build_script/kirin_kernel_release/kernel/arch/arm64/include/asm/device.h"
	.file	129 "/mnt/disk/jenkins/ci/workspace/chipset_pipeline_release/opensource/component_code/vendor/huawei/extra/build/build_script/kirin_kernel_release/kernel/include/linux/klist.h"
	.section	.text.hisi_blk_io_type_parse,"ax",@progbits
	.hidden	hisi_blk_io_type_parse  // -- Begin function hisi_blk_io_type_parse
	.globl	hisi_blk_io_type_parse
	.p2align	2
	.type	hisi_blk_io_type_parse,@function
hisi_blk_io_type_parse:                 // @hisi_blk_io_type_parse
.Lfunc_begin0:
	.loc	2 23 0                  // /mnt/disk/jenkins/ci/workspace/chipset_pipeline_release/opensource/component_code/vendor/huawei/extra/build/build_script/kirin_kernel_release/kernel/block/hisi-blk-dump.c:23:0
	.cfi_sections .debug_frame
	.cfi_startproc
// %bb.0:
	//DEBUG_VALUE: hisi_blk_io_type_parse:op <- $x0
	//DEBUG_VALUE: hisi_blk_io_type_parse:flag <- $x1
	//DEBUG_VALUE: hisi_blk_io_type_parse:flag <- $x1
	//DEBUG_VALUE: hisi_blk_io_type_parse:type_buf <- $x2
	//DEBUG_VALUE: hisi_blk_io_type_parse:type_buf <- $x2
	//DEBUG_VALUE: hisi_blk_io_type_parse:buf_len <- $w3
	//DEBUG_VALUE: hisi_blk_io_type_parse:buf_len <- $w3
	.loc	2 25 6 prologue_end     // /mnt/disk/jenkins/ci/workspace/chipset_pipeline_release/opensource/component_code/vendor/huawei/extra/build/build_script/kirin_kernel_release/kernel/block/hisi-blk-dump.c:25:6
	cmp	w3, #10                 // =10
.Ltmp0:
	//DEBUG_VALUE: hisi_blk_io_type_parse:len <- 0
	//DEBUG_VALUE: hisi_blk_io_type_parse:op <- $x0
	b.hs	.LBB0_2
.Ltmp1:
// %bb.1:
	//DEBUG_VALUE: hisi_blk_io_type_parse:buf_len <- $w3
	//DEBUG_VALUE: hisi_blk_io_type_parse:type_buf <- $x2
	//DEBUG_VALUE: hisi_blk_io_type_parse:flag <- $x1
	//DEBUG_VALUE: hisi_blk_io_type_parse:op <- $x0
	.loc	2 67 1                  // /mnt/disk/jenkins/ci/workspace/chipset_pipeline_release/opensource/component_code/vendor/huawei/extra/build/build_script/kirin_kernel_release/kernel/block/hisi-blk-dump.c:67:1
	mov	x0, xzr
.Ltmp2:
	ret
.LBB0_2:
	//DEBUG_VALUE: hisi_blk_io_type_parse:buf_len <- $w3
	//DEBUG_VALUE: hisi_blk_io_type_parse:type_buf <- $x2
	//DEBUG_VALUE: hisi_blk_io_type_parse:flag <- $x1
.Ltmp3:
	//DEBUG_VALUE: hisi_blk_io_type_parse:op <- $x0
	.loc	2 27 2                  // /mnt/disk/jenkins/ci/workspace/chipset_pipeline_release/opensource/component_code/vendor/huawei/extra/build/build_script/kirin_kernel_release/kernel/block/hisi-blk-dump.c:27:2
	cmp	x0, #7                  // =7
	b.hi	.LBB0_4
.Ltmp4:
// %bb.3:
	//DEBUG_VALUE: hisi_blk_io_type_parse:buf_len <- $w3
	//DEBUG_VALUE: hisi_blk_io_type_parse:type_buf <- $x2
	//DEBUG_VALUE: hisi_blk_io_type_parse:flag <- $x1
	//DEBUG_VALUE: hisi_blk_io_type_parse:op <- $x0
	.loc	2 0 2 is_stmt 0         // /mnt/disk/jenkins/ci/workspace/chipset_pipeline_release/opensource/component_code/vendor/huawei/extra/build/build_script/kirin_kernel_release/kernel/block/hisi-blk-dump.c:0:2
	mov	w8, #175
	.loc	2 27 2                  // /mnt/disk/jenkins/ci/workspace/chipset_pipeline_release/opensource/component_code/vendor/huawei/extra/build/build_script/kirin_kernel_release/kernel/block/hisi-blk-dump.c:27:2
	lsr	w8, w8, w0
	tbnz	w8, #0, .LBB0_19
.Ltmp5:
.LBB0_4:
	//DEBUG_VALUE: hisi_blk_io_type_parse:buf_len <- $w3
	//DEBUG_VALUE: hisi_blk_io_type_parse:type_buf <- $x2
	//DEBUG_VALUE: hisi_blk_io_type_parse:flag <- $x1
	//DEBUG_VALUE: hisi_blk_io_type_parse:op <- $x0
	.loc	2 0 0                   // /mnt/disk/jenkins/ci/workspace/chipset_pipeline_release/opensource/component_code/vendor/huawei/extra/build/build_script/kirin_kernel_release/kernel/block/hisi-blk-dump.c:0:0
	mov	w8, wzr
.Ltmp6:
	//DEBUG_VALUE: hisi_blk_io_type_parse:len <- $w8
	.loc	2 50 6 is_stmt 1        // /mnt/disk/jenkins/ci/workspace/chipset_pipeline_release/opensource/component_code/vendor/huawei/extra/build/build_script/kirin_kernel_release/kernel/block/hisi-blk-dump.c:50:6
	tbz	w1, #18, .LBB0_6
.Ltmp7:
.LBB0_5:
	//DEBUG_VALUE: hisi_blk_io_type_parse:len <- $w8
	//DEBUG_VALUE: hisi_blk_io_type_parse:buf_len <- $w3
	//DEBUG_VALUE: hisi_blk_io_type_parse:type_buf <- $x2
	//DEBUG_VALUE: hisi_blk_io_type_parse:flag <- $x1
	//DEBUG_VALUE: hisi_blk_io_type_parse:op <- $x0
	.loc	2 51 15                 // /mnt/disk/jenkins/ci/workspace/chipset_pipeline_release/opensource/component_code/vendor/huawei/extra/build/build_script/kirin_kernel_release/kernel/block/hisi-blk-dump.c:51:15
	add	w9, w8, #1              // =1
.Ltmp8:
	//DEBUG_VALUE: hisi_blk_io_type_parse:len <- $w9
	.loc	2 0 15 is_stmt 0        // /mnt/disk/jenkins/ci/workspace/chipset_pipeline_release/opensource/component_code/vendor/huawei/extra/build/build_script/kirin_kernel_release/kernel/block/hisi-blk-dump.c:0:15
	mov	w10, #65
	.loc	2 51 19                 // /mnt/disk/jenkins/ci/workspace/chipset_pipeline_release/opensource/component_code/vendor/huawei/extra/build/build_script/kirin_kernel_release/kernel/block/hisi-blk-dump.c:51:19
	strb	w10, [x2, w8, uxtw]
.Ltmp9:
	.loc	2 0 0                   // /mnt/disk/jenkins/ci/workspace/chipset_pipeline_release/opensource/component_code/vendor/huawei/extra/build/build_script/kirin_kernel_release/kernel/block/hisi-blk-dump.c:0:0
	mov	w8, w9
.Ltmp10:
	//DEBUG_VALUE: hisi_blk_io_type_parse:len <- $w8
.LBB0_6:
	//DEBUG_VALUE: hisi_blk_io_type_parse:len <- $w8
	//DEBUG_VALUE: hisi_blk_io_type_parse:buf_len <- $w3
	//DEBUG_VALUE: hisi_blk_io_type_parse:type_buf <- $x2
	//DEBUG_VALUE: hisi_blk_io_type_parse:flag <- $x1
	//DEBUG_VALUE: hisi_blk_io_type_parse:op <- $x0
	//DEBUG_VALUE: hisi_blk_io_type_parse:len <- $w8
	.loc	2 52 6 is_stmt 1        // /mnt/disk/jenkins/ci/workspace/chipset_pipeline_release/opensource/component_code/vendor/huawei/extra/build/build_script/kirin_kernel_release/kernel/block/hisi-blk-dump.c:52:6
	tbnz	w1, #11, .LBB0_14
.Ltmp11:
// %bb.7:
	//DEBUG_VALUE: hisi_blk_io_type_parse:len <- $w8
	//DEBUG_VALUE: hisi_blk_io_type_parse:buf_len <- $w3
	//DEBUG_VALUE: hisi_blk_io_type_parse:type_buf <- $x2
	//DEBUG_VALUE: hisi_blk_io_type_parse:flag <- $x1
	//DEBUG_VALUE: hisi_blk_io_type_parse:op <- $x0
	//DEBUG_VALUE: hisi_blk_io_type_parse:len <- $w8
	.loc	2 54 6                  // /mnt/disk/jenkins/ci/workspace/chipset_pipeline_release/opensource/component_code/vendor/huawei/extra/build/build_script/kirin_kernel_release/kernel/block/hisi-blk-dump.c:54:6
	tbnz	w1, #12, .LBB0_15
.Ltmp12:
.LBB0_8:
	//DEBUG_VALUE: hisi_blk_io_type_parse:len <- $w8
	//DEBUG_VALUE: hisi_blk_io_type_parse:buf_len <- $w3
	//DEBUG_VALUE: hisi_blk_io_type_parse:type_buf <- $x2
	//DEBUG_VALUE: hisi_blk_io_type_parse:flag <- $x1
	//DEBUG_VALUE: hisi_blk_io_type_parse:op <- $x0
	//DEBUG_VALUE: hisi_blk_io_type_parse:len <- $w8
	.loc	2 56 6                  // /mnt/disk/jenkins/ci/workspace/chipset_pipeline_release/opensource/component_code/vendor/huawei/extra/build/build_script/kirin_kernel_release/kernel/block/hisi-blk-dump.c:56:6
	tbnz	w1, #22, .LBB0_16
.Ltmp13:
.LBB0_9:
	//DEBUG_VALUE: hisi_blk_io_type_parse:len <- $w8
	//DEBUG_VALUE: hisi_blk_io_type_parse:buf_len <- $w3
	//DEBUG_VALUE: hisi_blk_io_type_parse:type_buf <- $x2
	//DEBUG_VALUE: hisi_blk_io_type_parse:flag <- $x1
	//DEBUG_VALUE: hisi_blk_io_type_parse:op <- $x0
	//DEBUG_VALUE: hisi_blk_io_type_parse:len <- $w8
	.loc	2 58 6                  // /mnt/disk/jenkins/ci/workspace/chipset_pipeline_release/opensource/component_code/vendor/huawei/extra/build/build_script/kirin_kernel_release/kernel/block/hisi-blk-dump.c:58:6
	tbnz	w1, #19, .LBB0_17
.Ltmp14:
.LBB0_10:
	//DEBUG_VALUE: hisi_blk_io_type_parse:len <- $w8
	//DEBUG_VALUE: hisi_blk_io_type_parse:buf_len <- $w3
	//DEBUG_VALUE: hisi_blk_io_type_parse:type_buf <- $x2
	//DEBUG_VALUE: hisi_blk_io_type_parse:flag <- $x1
	//DEBUG_VALUE: hisi_blk_io_type_parse:op <- $x0
	//DEBUG_VALUE: hisi_blk_io_type_parse:len <- $w8
	.loc	2 60 6                  // /mnt/disk/jenkins/ci/workspace/chipset_pipeline_release/opensource/component_code/vendor/huawei/extra/build/build_script/kirin_kernel_release/kernel/block/hisi-blk-dump.c:60:6
	tbnz	w1, #24, .LBB0_18
.Ltmp15:
.LBB0_11:
	//DEBUG_VALUE: hisi_blk_io_type_parse:len <- $w8
	//DEBUG_VALUE: hisi_blk_io_type_parse:buf_len <- $w3
	//DEBUG_VALUE: hisi_blk_io_type_parse:type_buf <- $x2
	//DEBUG_VALUE: hisi_blk_io_type_parse:flag <- $x1
	//DEBUG_VALUE: hisi_blk_io_type_parse:op <- $x0
	//DEBUG_VALUE: hisi_blk_io_type_parse:len <- $w8
	.loc	2 62 6                  // /mnt/disk/jenkins/ci/workspace/chipset_pipeline_release/opensource/component_code/vendor/huawei/extra/build/build_script/kirin_kernel_release/kernel/block/hisi-blk-dump.c:62:6
	tbz	w1, #23, .LBB0_13
.Ltmp16:
.LBB0_12:
	//DEBUG_VALUE: hisi_blk_io_type_parse:len <- $w8
	//DEBUG_VALUE: hisi_blk_io_type_parse:buf_len <- $w3
	//DEBUG_VALUE: hisi_blk_io_type_parse:type_buf <- $x2
	//DEBUG_VALUE: hisi_blk_io_type_parse:flag <- $x1
	//DEBUG_VALUE: hisi_blk_io_type_parse:op <- $x0
	.loc	2 63 15                 // /mnt/disk/jenkins/ci/workspace/chipset_pipeline_release/opensource/component_code/vendor/huawei/extra/build/build_script/kirin_kernel_release/kernel/block/hisi-blk-dump.c:63:15
	add	w9, w8, #1              // =1
.Ltmp17:
	//DEBUG_VALUE: hisi_blk_io_type_parse:len <- $w9
	.loc	2 0 15 is_stmt 0        // /mnt/disk/jenkins/ci/workspace/chipset_pipeline_release/opensource/component_code/vendor/huawei/extra/build/build_script/kirin_kernel_release/kernel/block/hisi-blk-dump.c:0:15
	mov	w10, #90
	.loc	2 63 19                 // /mnt/disk/jenkins/ci/workspace/chipset_pipeline_release/opensource/component_code/vendor/huawei/extra/build/build_script/kirin_kernel_release/kernel/block/hisi-blk-dump.c:63:19
	strb	w10, [x2, w8, uxtw]
.Ltmp18:
	.loc	2 0 0                   // /mnt/disk/jenkins/ci/workspace/chipset_pipeline_release/opensource/component_code/vendor/huawei/extra/build/build_script/kirin_kernel_release/kernel/block/hisi-blk-dump.c:0:0
	mov	w8, w9
.Ltmp19:
	//DEBUG_VALUE: hisi_blk_io_type_parse:len <- $w8
.LBB0_13:
	//DEBUG_VALUE: hisi_blk_io_type_parse:len <- $w8
	//DEBUG_VALUE: hisi_blk_io_type_parse:buf_len <- $w3
	//DEBUG_VALUE: hisi_blk_io_type_parse:type_buf <- $x2
	//DEBUG_VALUE: hisi_blk_io_type_parse:flag <- $x1
	//DEBUG_VALUE: hisi_blk_io_type_parse:op <- $x0
	//DEBUG_VALUE: hisi_blk_io_type_parse:len <- $w8
	.loc	2 67 1 is_stmt 1        // /mnt/disk/jenkins/ci/workspace/chipset_pipeline_release/opensource/component_code/vendor/huawei/extra/build/build_script/kirin_kernel_release/kernel/block/hisi-blk-dump.c:67:1
	mov	x0, x2
.Ltmp20:
	.loc	2 64 16                 // /mnt/disk/jenkins/ci/workspace/chipset_pipeline_release/opensource/component_code/vendor/huawei/extra/build/build_script/kirin_kernel_release/kernel/block/hisi-blk-dump.c:64:16
	strb	wzr, [x2, w8, uxtw]
	.loc	2 67 1                  // /mnt/disk/jenkins/ci/workspace/chipset_pipeline_release/opensource/component_code/vendor/huawei/extra/build/build_script/kirin_kernel_release/kernel/block/hisi-blk-dump.c:67:1
	ret
.Ltmp21:
.LBB0_14:
	//DEBUG_VALUE: hisi_blk_io_type_parse:len <- $w8
	//DEBUG_VALUE: hisi_blk_io_type_parse:buf_len <- $w3
	//DEBUG_VALUE: hisi_blk_io_type_parse:type_buf <- $x2
	//DEBUG_VALUE: hisi_blk_io_type_parse:flag <- $x1
	//DEBUG_VALUE: hisi_blk_io_type_parse:op <- $x0
	.loc	2 53 15                 // /mnt/disk/jenkins/ci/workspace/chipset_pipeline_release/opensource/component_code/vendor/huawei/extra/build/build_script/kirin_kernel_release/kernel/block/hisi-blk-dump.c:53:15
	add	w9, w8, #1              // =1
.Ltmp22:
	//DEBUG_VALUE: hisi_blk_io_type_parse:len <- $w9
	.loc	2 0 15 is_stmt 0        // /mnt/disk/jenkins/ci/workspace/chipset_pipeline_release/opensource/component_code/vendor/huawei/extra/build/build_script/kirin_kernel_release/kernel/block/hisi-blk-dump.c:0:15
	mov	w10, #83
	.loc	2 53 19                 // /mnt/disk/jenkins/ci/workspace/chipset_pipeline_release/opensource/component_code/vendor/huawei/extra/build/build_script/kirin_kernel_release/kernel/block/hisi-blk-dump.c:53:19
	strb	w10, [x2, w8, uxtw]
.Ltmp23:
	.loc	2 0 0                   // /mnt/disk/jenkins/ci/workspace/chipset_pipeline_release/opensource/component_code/vendor/huawei/extra/build/build_script/kirin_kernel_release/kernel/block/hisi-blk-dump.c:0:0
	mov	w8, w9
.Ltmp24:
	//DEBUG_VALUE: hisi_blk_io_type_parse:len <- $w8
	//DEBUG_VALUE: hisi_blk_io_type_parse:len <- $w8
	.loc	2 54 6 is_stmt 1        // /mnt/disk/jenkins/ci/workspace/chipset_pipeline_release/opensource/component_code/vendor/huawei/extra/build/build_script/kirin_kernel_release/kernel/block/hisi-blk-dump.c:54:6
	tbz	w1, #12, .LBB0_8
.Ltmp25:
.LBB0_15:
	//DEBUG_VALUE: hisi_blk_io_type_parse:len <- $w8
	//DEBUG_VALUE: hisi_blk_io_type_parse:buf_len <- $w3
	//DEBUG_VALUE: hisi_blk_io_type_parse:type_buf <- $x2
	//DEBUG_VALUE: hisi_blk_io_type_parse:flag <- $x1
	//DEBUG_VALUE: hisi_blk_io_type_parse:op <- $x0
	.loc	2 55 15                 // /mnt/disk/jenkins/ci/workspace/chipset_pipeline_release/opensource/component_code/vendor/huawei/extra/build/build_script/kirin_kernel_release/kernel/block/hisi-blk-dump.c:55:15
	add	w9, w8, #1              // =1
.Ltmp26:
	//DEBUG_VALUE: hisi_blk_io_type_parse:len <- $w9
	.loc	2 0 15 is_stmt 0        // /mnt/disk/jenkins/ci/workspace/chipset_pipeline_release/opensource/component_code/vendor/huawei/extra/build/build_script/kirin_kernel_release/kernel/block/hisi-blk-dump.c:0:15
	mov	w10, #77
	.loc	2 55 19                 // /mnt/disk/jenkins/ci/workspace/chipset_pipeline_release/opensource/component_code/vendor/huawei/extra/build/build_script/kirin_kernel_release/kernel/block/hisi-blk-dump.c:55:19
	strb	w10, [x2, w8, uxtw]
.Ltmp27:
	.loc	2 0 0                   // /mnt/disk/jenkins/ci/workspace/chipset_pipeline_release/opensource/component_code/vendor/huawei/extra/build/build_script/kirin_kernel_release/kernel/block/hisi-blk-dump.c:0:0
	mov	w8, w9
.Ltmp28:
	//DEBUG_VALUE: hisi_blk_io_type_parse:len <- $w8
	//DEBUG_VALUE: hisi_blk_io_type_parse:len <- $w8
	.loc	2 56 6 is_stmt 1        // /mnt/disk/jenkins/ci/workspace/chipset_pipeline_release/opensource/component_code/vendor/huawei/extra/build/build_script/kirin_kernel_release/kernel/block/hisi-blk-dump.c:56:6
	tbz	w1, #22, .LBB0_9
.Ltmp29:
.LBB0_16:
	//DEBUG_VALUE: hisi_blk_io_type_parse:len <- $w8
	//DEBUG_VALUE: hisi_blk_io_type_parse:buf_len <- $w3
	//DEBUG_VALUE: hisi_blk_io_type_parse:type_buf <- $x2
	//DEBUG_VALUE: hisi_blk_io_type_parse:flag <- $x1
	//DEBUG_VALUE: hisi_blk_io_type_parse:op <- $x0
	.loc	2 57 15                 // /mnt/disk/jenkins/ci/workspace/chipset_pipeline_release/opensource/component_code/vendor/huawei/extra/build/build_script/kirin_kernel_release/kernel/block/hisi-blk-dump.c:57:15
	add	w9, w8, #1              // =1
.Ltmp30:
	//DEBUG_VALUE: hisi_blk_io_type_parse:len <- $w9
	.loc	2 0 15 is_stmt 0        // /mnt/disk/jenkins/ci/workspace/chipset_pipeline_release/opensource/component_code/vendor/huawei/extra/build/build_script/kirin_kernel_release/kernel/block/hisi-blk-dump.c:0:15
	mov	w10, #72
	.loc	2 57 19                 // /mnt/disk/jenkins/ci/workspace/chipset_pipeline_release/opensource/component_code/vendor/huawei/extra/build/build_script/kirin_kernel_release/kernel/block/hisi-blk-dump.c:57:19
	strb	w10, [x2, w8, uxtw]
.Ltmp31:
	.loc	2 0 0                   // /mnt/disk/jenkins/ci/workspace/chipset_pipeline_release/opensource/component_code/vendor/huawei/extra/build/build_script/kirin_kernel_release/kernel/block/hisi-blk-dump.c:0:0
	mov	w8, w9
.Ltmp32:
	//DEBUG_VALUE: hisi_blk_io_type_parse:len <- $w8
	//DEBUG_VALUE: hisi_blk_io_type_parse:len <- $w8
	.loc	2 58 6 is_stmt 1        // /mnt/disk/jenkins/ci/workspace/chipset_pipeline_release/opensource/component_code/vendor/huawei/extra/build/build_script/kirin_kernel_release/kernel/block/hisi-blk-dump.c:58:6
	tbz	w1, #19, .LBB0_10
.Ltmp33:
.LBB0_17:
	//DEBUG_VALUE: hisi_blk_io_type_parse:len <- $w8
	//DEBUG_VALUE: hisi_blk_io_type_parse:buf_len <- $w3
	//DEBUG_VALUE: hisi_blk_io_type_parse:type_buf <- $x2
	//DEBUG_VALUE: hisi_blk_io_type_parse:flag <- $x1
	//DEBUG_VALUE: hisi_blk_io_type_parse:op <- $x0
	.loc	2 59 15                 // /mnt/disk/jenkins/ci/workspace/chipset_pipeline_release/opensource/component_code/vendor/huawei/extra/build/build_script/kirin_kernel_release/kernel/block/hisi-blk-dump.c:59:15
	add	w9, w8, #1              // =1
.Ltmp34:
	//DEBUG_VALUE: hisi_blk_io_type_parse:len <- $w9
	.loc	2 0 15 is_stmt 0        // /mnt/disk/jenkins/ci/workspace/chipset_pipeline_release/opensource/component_code/vendor/huawei/extra/build/build_script/kirin_kernel_release/kernel/block/hisi-blk-dump.c:0:15
	mov	w10, #70
	.loc	2 59 19                 // /mnt/disk/jenkins/ci/workspace/chipset_pipeline_release/opensource/component_code/vendor/huawei/extra/build/build_script/kirin_kernel_release/kernel/block/hisi-blk-dump.c:59:19
	strb	w10, [x2, w8, uxtw]
.Ltmp35:
	.loc	2 0 0                   // /mnt/disk/jenkins/ci/workspace/chipset_pipeline_release/opensource/component_code/vendor/huawei/extra/build/build_script/kirin_kernel_release/kernel/block/hisi-blk-dump.c:0:0
	mov	w8, w9
.Ltmp36:
	//DEBUG_VALUE: hisi_blk_io_type_parse:len <- $w8
	//DEBUG_VALUE: hisi_blk_io_type_parse:len <- $w8
	.loc	2 60 6 is_stmt 1        // /mnt/disk/jenkins/ci/workspace/chipset_pipeline_release/opensource/component_code/vendor/huawei/extra/build/build_script/kirin_kernel_release/kernel/block/hisi-blk-dump.c:60:6
	tbz	w1, #24, .LBB0_11
.Ltmp37:
.LBB0_18:
	//DEBUG_VALUE: hisi_blk_io_type_parse:len <- $w8
	//DEBUG_VALUE: hisi_blk_io_type_parse:buf_len <- $w3
	//DEBUG_VALUE: hisi_blk_io_type_parse:type_buf <- $x2
	//DEBUG_VALUE: hisi_blk_io_type_parse:flag <- $x1
	//DEBUG_VALUE: hisi_blk_io_type_parse:op <- $x0
	.loc	2 61 15                 // /mnt/disk/jenkins/ci/workspace/chipset_pipeline_release/opensource/component_code/vendor/huawei/extra/build/build_script/kirin_kernel_release/kernel/block/hisi-blk-dump.c:61:15
	add	w9, w8, #1              // =1
.Ltmp38:
	//DEBUG_VALUE: hisi_blk_io_type_parse:len <- $w9
	.loc	2 0 15 is_stmt 0        // /mnt/disk/jenkins/ci/workspace/chipset_pipeline_release/opensource/component_code/vendor/huawei/extra/build/build_script/kirin_kernel_release/kernel/block/hisi-blk-dump.c:0:15
	mov	w10, #67
	.loc	2 61 19                 // /mnt/disk/jenkins/ci/workspace/chipset_pipeline_release/opensource/component_code/vendor/huawei/extra/build/build_script/kirin_kernel_release/kernel/block/hisi-blk-dump.c:61:19
	strb	w10, [x2, w8, uxtw]
.Ltmp39:
	.loc	2 0 0                   // /mnt/disk/jenkins/ci/workspace/chipset_pipeline_release/opensource/component_code/vendor/huawei/extra/build/build_script/kirin_kernel_release/kernel/block/hisi-blk-dump.c:0:0
	mov	w8, w9
.Ltmp40:
	//DEBUG_VALUE: hisi_blk_io_type_parse:len <- $w8
	//DEBUG_VALUE: hisi_blk_io_type_parse:len <- $w8
	.loc	2 62 6 is_stmt 1        // /mnt/disk/jenkins/ci/workspace/chipset_pipeline_release/opensource/component_code/vendor/huawei/extra/build/build_script/kirin_kernel_release/kernel/block/hisi-blk-dump.c:62:6
	tbnz	w1, #23, .LBB0_12
	b	.LBB0_13
.Ltmp41:
.LBB0_19:
	//DEBUG_VALUE: hisi_blk_io_type_parse:buf_len <- $w3
	//DEBUG_VALUE: hisi_blk_io_type_parse:type_buf <- $x2
	//DEBUG_VALUE: hisi_blk_io_type_parse:flag <- $x1
	//DEBUG_VALUE: hisi_blk_io_type_parse:op <- $x0
	.loc	2 0 6 is_stmt 0         // /mnt/disk/jenkins/ci/workspace/chipset_pipeline_release/opensource/component_code/vendor/huawei/extra/build/build_script/kirin_kernel_release/kernel/block/hisi-blk-dump.c:0:6
	mov	x9, #22354
	movk	x9, #17478, lsl #16
	movk	x9, #17746, lsl #32
	.loc	2 27 2 is_stmt 1        // /mnt/disk/jenkins/ci/workspace/chipset_pipeline_release/opensource/component_code/vendor/huawei/extra/build/build_script/kirin_kernel_release/kernel/block/hisi-blk-dump.c:27:2
	lsl	x8, x0, #3
	movk	x9, #21586, lsl #48
	lsr	x8, x9, x8
.Ltmp42:
	.loc	2 0 0 is_stmt 0         // /mnt/disk/jenkins/ci/workspace/chipset_pipeline_release/opensource/component_code/vendor/huawei/extra/build/build_script/kirin_kernel_release/kernel/block/hisi-blk-dump.c:0:0
	strb	w8, [x2]
	orr	w8, wzr, #0x1
.Ltmp43:
	//DEBUG_VALUE: hisi_blk_io_type_parse:len <- $w8
	.loc	2 50 6 is_stmt 1        // /mnt/disk/jenkins/ci/workspace/chipset_pipeline_release/opensource/component_code/vendor/huawei/extra/build/build_script/kirin_kernel_release/kernel/block/hisi-blk-dump.c:50:6
	tbnz	w1, #18, .LBB0_5
	b	.LBB0_6
.Ltmp44:
.Lfunc_end0:
	.size	hisi_blk_io_type_parse, .Lfunc_end0-hisi_blk_io_type_parse
	.cfi_endproc
                                        // -- End function
	.section	.text.hisi_blk_dump_request,"ax",@progbits
	.hidden	hisi_blk_dump_request   // -- Begin function hisi_blk_dump_request
	.globl	hisi_blk_dump_request
	.p2align	2
	.type	hisi_blk_dump_request,@function
hisi_blk_dump_request:                  // @hisi_blk_dump_request
.Lfunc_begin1:
	.loc	2 73 0                  // /mnt/disk/jenkins/ci/workspace/chipset_pipeline_release/opensource/component_code/vendor/huawei/extra/build/build_script/kirin_kernel_release/kernel/block/hisi-blk-dump.c:73:0
	.cfi_startproc
// %bb.0:
	stp	x28, x27, [sp, #-96]!   // 16-byte Folded Spill
	stp	x26, x25, [sp, #16]     // 16-byte Folded Spill
	stp	x24, x23, [sp, #32]     // 16-byte Folded Spill
	stp	x22, x21, [sp, #48]     // 16-byte Folded Spill
	stp	x20, x19, [sp, #64]     // 16-byte Folded Spill
	stp	x29, x30, [sp, #80]     // 16-byte Folded Spill
	add	x29, sp, #80            // =80
	sub	sp, sp, #576            // =576
	.cfi_def_cfa w29, 16
	.cfi_offset w30, -8
	.cfi_offset w29, -16
	.cfi_offset w19, -24
	.cfi_offset w20, -32
	.cfi_offset w21, -40
	.cfi_offset w22, -48
	.cfi_offset w23, -56
	.cfi_offset w24, -64
	.cfi_offset w25, -72
	.cfi_offset w26, -80
	.cfi_offset w27, -88
	.cfi_offset w28, -96
	adrp	x8, __stack_chk_guard
	ldr	x8, [x8, :lo12:__stack_chk_guard]
	//DEBUG_VALUE: hisi_blk_dump_request:rq <- $x20
	//DEBUG_VALUE: hisi_blk_dump_request:prefix <- $x19
.Ltmp45:
	.loc	2 72 44 prologue_end    // /mnt/disk/jenkins/ci/workspace/chipset_pipeline_release/opensource/component_code/vendor/huawei/extra/build/build_script/kirin_kernel_release/kernel/block/hisi-blk-dump.c:72:44
	add	x23, sp, #24            // =24
.Ltmp46:
	//DEBUG_VALUE: blk_rq_is_scsi:rq <- $x0
	//DEBUG_VALUE: hisi_blk_dump_request:rq <- $x0
	//DEBUG_VALUE: hisi_blk_dump_request:prefix <- $x1
	.loc	2 0 44 is_stmt 0        // /mnt/disk/jenkins/ci/workspace/chipset_pipeline_release/opensource/component_code/vendor/huawei/extra/build/build_script/kirin_kernel_release/kernel/block/hisi-blk-dump.c:0:44
	mov	x19, x1
	mov	x20, x0
.Ltmp47:
	//DEBUG_VALUE: blk_rq_is_scsi:rq <- $x20
	str	x8, [x23]
.Ltmp48:
	//DEBUG_VALUE: hisi_blk_dump_request:count <- 0
	.loc	2 80 3 is_stmt 1        // /mnt/disk/jenkins/ci/workspace/chipset_pipeline_release/opensource/component_code/vendor/huawei/extra/build/build_script/kirin_kernel_release/kernel/block/hisi-blk-dump.c:80:3
	ldr	w1, [x0, #84]
.Ltmp49:
	.loc	2 79 15                 // /mnt/disk/jenkins/ci/workspace/chipset_pipeline_release/opensource/component_code/vendor/huawei/extra/build/build_script/kirin_kernel_release/kernel/block/hisi-blk-dump.c:79:15
	add	x2, sp, #36             // =36
	mov	w3, #10
	.loc	2 80 3                  // /mnt/disk/jenkins/ci/workspace/chipset_pipeline_release/opensource/component_code/vendor/huawei/extra/build/build_script/kirin_kernel_release/kernel/block/hisi-blk-dump.c:80:3
	and	x0, x1, #0xff
.Ltmp50:
	.loc	2 79 15                 // /mnt/disk/jenkins/ci/workspace/chipset_pipeline_release/opensource/component_code/vendor/huawei/extra/build/build_script/kirin_kernel_release/kernel/block/hisi-blk-dump.c:79:15
	bl	hisi_blk_io_type_parse
	adrp	x25, req_stage_cfg
	adrp	x22, .L.str
	mov	x21, x0
.Ltmp51:
	//DEBUG_VALUE: hisi_blk_dump_request:type <- $x21
	.loc	2 0 15 is_stmt 0        // /mnt/disk/jenkins/ci/workspace/chipset_pipeline_release/opensource/component_code/vendor/huawei/extra/build/build_script/kirin_kernel_release/kernel/block/hisi-blk-dump.c:0:15
	mov	w24, wzr
	add	x25, x25, :lo12:req_stage_cfg
	mov	w26, #296
.Ltmp52:
	//DEBUG_VALUE: hisi_blk_dump_request:i <- 0
	add	x27, sp, #48            // =48
	orr	w28, wzr, #0x200
	add	x22, x22, :lo12:.L.str
.Ltmp53:
.LBB1_1:                                // =>This Inner Loop Header: Depth=1
	//DEBUG_VALUE: hisi_blk_dump_request:type <- $x21
	//DEBUG_VALUE: hisi_blk_dump_request:count <- $w24
	//DEBUG_VALUE: hisi_blk_dump_request:i <- undef
	.loc	2 83 7 is_stmt 1        // /mnt/disk/jenkins/ci/workspace/chipset_pipeline_release/opensource/component_code/vendor/huawei/extra/build/build_script/kirin_kernel_release/kernel/block/hisi-blk-dump.c:83:7
	ldr	x4, [x20, x26]
.Ltmp54:
	.loc	2 83 7 is_stmt 0        // /mnt/disk/jenkins/ci/workspace/chipset_pipeline_release/opensource/component_code/vendor/huawei/extra/build/build_script/kirin_kernel_release/kernel/block/hisi-blk-dump.c:83:7
	cbz	x4, .LBB1_3
.Ltmp55:
// %bb.2:                               //   in Loop: Header=BB1_1 Depth=1
	//DEBUG_VALUE: hisi_blk_dump_request:count <- $w24
	//DEBUG_VALUE: hisi_blk_dump_request:type <- $x21
	.loc	2 86 35 is_stmt 1       // /mnt/disk/jenkins/ci/workspace/chipset_pipeline_release/opensource/component_code/vendor/huawei/extra/build/build_script/kirin_kernel_release/kernel/block/hisi-blk-dump.c:86:35
	ldr	x3, [x25]
	.loc	2 85 25                 // /mnt/disk/jenkins/ci/workspace/chipset_pipeline_release/opensource/component_code/vendor/huawei/extra/build/build_script/kirin_kernel_release/kernel/block/hisi-blk-dump.c:85:25
	mov	w8, w24
	add	x0, x27, x8
	.loc	2 85 64 is_stmt 0       // /mnt/disk/jenkins/ci/workspace/chipset_pipeline_release/opensource/component_code/vendor/huawei/extra/build/build_script/kirin_kernel_release/kernel/block/hisi-blk-dump.c:85:64
	sub	x1, x28, x8
	.loc	2 85 12                 // /mnt/disk/jenkins/ci/workspace/chipset_pipeline_release/opensource/component_code/vendor/huawei/extra/build/build_script/kirin_kernel_release/kernel/block/hisi-blk-dump.c:85:12
	mov	x2, x22
	bl	snprintf
	.loc	2 85 9                  // /mnt/disk/jenkins/ci/workspace/chipset_pipeline_release/opensource/component_code/vendor/huawei/extra/build/build_script/kirin_kernel_release/kernel/block/hisi-blk-dump.c:85:9
	add	w24, w0, w24
.Ltmp56:
	//DEBUG_VALUE: hisi_blk_dump_request:count <- $w24
.LBB1_3:                                //   in Loop: Header=BB1_1 Depth=1
	//DEBUG_VALUE: hisi_blk_dump_request:count <- $w24
	//DEBUG_VALUE: hisi_blk_dump_request:type <- $x21
	//DEBUG_VALUE: hisi_blk_dump_request:count <- $w24
	//DEBUG_VALUE: hisi_blk_dump_request:i <- [DW_OP_plus_uconst 1, DW_OP_stack_value] undef
	.loc	2 82 16 is_stmt 1       // /mnt/disk/jenkins/ci/workspace/chipset_pipeline_release/opensource/component_code/vendor/huawei/extra/build/build_script/kirin_kernel_release/kernel/block/hisi-blk-dump.c:82:16
	add	x26, x26, #8            // =8
.Ltmp57:
	.loc	2 82 2 is_stmt 0        // /mnt/disk/jenkins/ci/workspace/chipset_pipeline_release/opensource/component_code/vendor/huawei/extra/build/build_script/kirin_kernel_release/kernel/block/hisi-blk-dump.c:82:2
	cmp	x26, #416               // =416
.Ltmp58:
	.loc	2 82 16                 // /mnt/disk/jenkins/ci/workspace/chipset_pipeline_release/opensource/component_code/vendor/huawei/extra/build/build_script/kirin_kernel_release/kernel/block/hisi-blk-dump.c:82:16
	add	x25, x25, #16           // =16
.Ltmp59:
	.loc	2 82 2                  // /mnt/disk/jenkins/ci/workspace/chipset_pipeline_release/opensource/component_code/vendor/huawei/extra/build/build_script/kirin_kernel_release/kernel/block/hisi-blk-dump.c:82:2
	b.ne	.LBB1_1
.Ltmp60:
// %bb.4:
	//DEBUG_VALUE: hisi_blk_dump_request:count <- $w24
	//DEBUG_VALUE: hisi_blk_dump_request:type <- $x21
	.loc	23 350 24 is_stmt 1     // /mnt/disk/jenkins/ci/workspace/chipset_pipeline_release/opensource/component_code/vendor/huawei/extra/build/build_script/kirin_kernel_release/kernel/include/linux/blkdev.h:350:24
	ldr	w8, [x20, #84]
.Ltmp61:
	.loc	2 90 6                  // /mnt/disk/jenkins/ci/workspace/chipset_pipeline_release/opensource/component_code/vendor/huawei/extra/build/build_script/kirin_kernel_release/kernel/block/hisi-blk-dump.c:90:6
	adrp	x9, .L.str.3
	adrp	x10, .L.str.2
	add	x9, x9, :lo12:.L.str.3
.Ltmp62:
	.loc	23 350 24               // /mnt/disk/jenkins/ci/workspace/chipset_pipeline_release/opensource/component_code/vendor/huawei/extra/build/build_script/kirin_kernel_release/kernel/include/linux/blkdev.h:350:24
	and	w8, w8, #0xfe
.Ltmp63:
	//DEBUG_VALUE: blk_op_is_scsi:op <- $w8
	.loc	23 340 30               // /mnt/disk/jenkins/ci/workspace/chipset_pipeline_release/opensource/component_code/vendor/huawei/extra/build/build_script/kirin_kernel_release/kernel/include/linux/blkdev.h:340:30
	orr	w8, w8, #0x1
.Ltmp64:
	.loc	2 90 6                  // /mnt/disk/jenkins/ci/workspace/chipset_pipeline_release/opensource/component_code/vendor/huawei/extra/build/build_script/kirin_kernel_release/kernel/block/hisi-blk-dump.c:90:6
	add	x10, x10, :lo12:.L.str.2
	cmp	w8, #35                 // =35
	csel	x9, x10, x9, eq
.Ltmp65:
	.loc	2 0 0 is_stmt 0         // /mnt/disk/jenkins/ci/workspace/chipset_pipeline_release/opensource/component_code/vendor/huawei/extra/build/build_script/kirin_kernel_release/kernel/block/hisi-blk-dump.c:0:0
	ldr	x10, [x20, #264]
	.loc	2 97 19 is_stmt 1       // /mnt/disk/jenkins/ci/workspace/chipset_pipeline_release/opensource/component_code/vendor/huawei/extra/build/build_script/kirin_kernel_release/kernel/block/hisi-blk-dump.c:97:19
	ldr	x12, [x20, #232]
	.loc	2 0 0 is_stmt 0         // /mnt/disk/jenkins/ci/workspace/chipset_pipeline_release/opensource/component_code/vendor/huawei/extra/build/build_script/kirin_kernel_release/kernel/block/hisi-blk-dump.c:0:0
	ldr	w4, [x20, #104]
	ldr	w6, [x20, #276]
.Ltmp66:
	.loc	2 90 6 is_stmt 1        // /mnt/disk/jenkins/ci/workspace/chipset_pipeline_release/opensource/component_code/vendor/huawei/extra/build/build_script/kirin_kernel_release/kernel/block/hisi-blk-dump.c:90:6
	adrp	x11, .L.str.1
	add	x11, x11, :lo12:.L.str.1
	cmp	w8, #33                 // =33
	csel	x5, x11, x9, eq
.Ltmp67:
	//DEBUG_VALUE: hisi_blk_dump_request:cmp_type <- $x5
	.loc	2 0 0 is_stmt 0         // /mnt/disk/jenkins/ci/workspace/chipset_pipeline_release/opensource/component_code/vendor/huawei/extra/build/build_script/kirin_kernel_release/kernel/block/hisi-blk-dump.c:0:0
	and	x7, x10, #0x1
	and	x8, x10, #0x2
.Ltmp68:
	.loc	2 97 6 is_stmt 1        // /mnt/disk/jenkins/ci/workspace/chipset_pipeline_release/opensource/component_code/vendor/huawei/extra/build/build_script/kirin_kernel_release/kernel/block/hisi-blk-dump.c:97:6
	cbz	x12, .LBB1_6
.Ltmp69:
// %bb.5:
	//DEBUG_VALUE: hisi_blk_dump_request:cmp_type <- $x5
	//DEBUG_VALUE: hisi_blk_dump_request:count <- $w24
	//DEBUG_VALUE: hisi_blk_dump_request:type <- $x21
	.loc	2 108 3                 // /mnt/disk/jenkins/ci/workspace/chipset_pipeline_release/opensource/component_code/vendor/huawei/extra/build/build_script/kirin_kernel_release/kernel/block/hisi-blk-dump.c:108:3
	ldr	w9, [x20, #240]
	add	x10, x20, #248          // =248
	adrp	x0, .L.str.4
	str	x10, [sp, #16]
	str	w9, [sp, #8]
	add	x0, x0, :lo12:.L.str.4
	b	.LBB1_7
.Ltmp70:
.LBB1_6:
	//DEBUG_VALUE: hisi_blk_dump_request:cmp_type <- $x5
	//DEBUG_VALUE: hisi_blk_dump_request:count <- $w24
	//DEBUG_VALUE: hisi_blk_dump_request:type <- $x21
	.loc	2 117 3                 // /mnt/disk/jenkins/ci/workspace/chipset_pipeline_release/opensource/component_code/vendor/huawei/extra/build/build_script/kirin_kernel_release/kernel/block/hisi-blk-dump.c:117:3
	adrp	x0, .L.str.5
	add	x0, x0, :lo12:.L.str.5
.Ltmp71:
.LBB1_7:
	//DEBUG_VALUE: hisi_blk_dump_request:cmp_type <- $x5
	//DEBUG_VALUE: hisi_blk_dump_request:count <- $w24
	//DEBUG_VALUE: hisi_blk_dump_request:type <- $x21
	.loc	2 0 0 is_stmt 0         // /mnt/disk/jenkins/ci/workspace/chipset_pipeline_release/opensource/component_code/vendor/huawei/extra/build/build_script/kirin_kernel_release/kernel/block/hisi-blk-dump.c:0:0
	mov	x1, x19
	mov	x2, x20
	mov	x3, x21
	str	x8, [sp]
	bl	printk
.Ltmp72:
	.loc	2 123 2 is_stmt 1       // /mnt/disk/jenkins/ci/workspace/chipset_pipeline_release/opensource/component_code/vendor/huawei/extra/build/build_script/kirin_kernel_release/kernel/block/hisi-blk-dump.c:123:2
	adrp	x0, .L.str.6
	add	x0, x0, :lo12:.L.str.6
	add	x2, sp, #48             // =48
	mov	x1, x19
	bl	printk
	adrp	x9, __stack_chk_guard
	ldr	x8, [x23]
	ldr	x9, [x9, :lo12:__stack_chk_guard]
	cmp	x9, x8
	b.ne	.LBB1_9
.Ltmp73:
// %bb.8:
	//DEBUG_VALUE: hisi_blk_dump_request:count <- $w24
	//DEBUG_VALUE: hisi_blk_dump_request:type <- $x21
	.loc	2 124 1                 // /mnt/disk/jenkins/ci/workspace/chipset_pipeline_release/opensource/component_code/vendor/huawei/extra/build/build_script/kirin_kernel_release/kernel/block/hisi-blk-dump.c:124:1
	add	sp, sp, #576            // =576
	ldp	x29, x30, [sp, #80]     // 16-byte Folded Reload
	ldp	x20, x19, [sp, #64]     // 16-byte Folded Reload
	ldp	x22, x21, [sp, #48]     // 16-byte Folded Reload
.Ltmp74:
	ldp	x24, x23, [sp, #32]     // 16-byte Folded Reload
.Ltmp75:
	ldp	x26, x25, [sp, #16]     // 16-byte Folded Reload
	ldp	x28, x27, [sp], #96     // 16-byte Folded Reload
	ret
.Ltmp76:
.LBB1_9:
	//DEBUG_VALUE: hisi_blk_dump_request:count <- $w24
	//DEBUG_VALUE: hisi_blk_dump_request:type <- $x21
	.loc	2 0 1 is_stmt 0         // /mnt/disk/jenkins/ci/workspace/chipset_pipeline_release/opensource/component_code/vendor/huawei/extra/build/build_script/kirin_kernel_release/kernel/block/hisi-blk-dump.c:0:1
	bl	__stack_chk_fail
.Lfunc_end1:
	.size	hisi_blk_dump_request, .Lfunc_end1-hisi_blk_dump_request
	.cfi_endproc
                                        // -- End function
	.section	.text.hisi_blk_dump_bio,"ax",@progbits
	.hidden	hisi_blk_dump_bio       // -- Begin function hisi_blk_dump_bio
	.globl	hisi_blk_dump_bio
	.p2align	2
	.type	hisi_blk_dump_bio,@function
hisi_blk_dump_bio:                      // @hisi_blk_dump_bio
.Lfunc_begin2:
	.loc	2 130 0 is_stmt 1       // /mnt/disk/jenkins/ci/workspace/chipset_pipeline_release/opensource/component_code/vendor/huawei/extra/build/build_script/kirin_kernel_release/kernel/block/hisi-blk-dump.c:130:0
	.cfi_startproc
// %bb.0:
	stp	x28, x23, [sp, #-64]!   // 16-byte Folded Spill
	stp	x22, x21, [sp, #16]     // 16-byte Folded Spill
	stp	x20, x19, [sp, #32]     // 16-byte Folded Spill
	stp	x29, x30, [sp, #48]     // 16-byte Folded Spill
	add	x29, sp, #48            // =48
	sub	sp, sp, #544            // =544
	.cfi_def_cfa w29, 16
	.cfi_offset w30, -8
	.cfi_offset w29, -16
	.cfi_offset w19, -24
	.cfi_offset w20, -32
	.cfi_offset w21, -40
	.cfi_offset w22, -48
	.cfi_offset w23, -56
	.cfi_offset w28, -64
	adrp	x8, __stack_chk_guard
	ldr	x8, [x8, :lo12:__stack_chk_guard]
	//DEBUG_VALUE: hisi_blk_dump_bio:bio <- $x20
	//DEBUG_VALUE: hisi_blk_dump_bio:prefix <- $x19
.Ltmp77:
	.loc	2 129 36 prologue_end   // /mnt/disk/jenkins/ci/workspace/chipset_pipeline_release/opensource/component_code/vendor/huawei/extra/build/build_script/kirin_kernel_release/kernel/block/hisi-blk-dump.c:129:36
	mov	x23, sp
.Ltmp78:
	//DEBUG_VALUE: hisi_blk_dump_bio:bio <- $x0
	//DEBUG_VALUE: hisi_blk_dump_bio:prefix <- $x1
	.loc	2 0 36 is_stmt 0        // /mnt/disk/jenkins/ci/workspace/chipset_pipeline_release/opensource/component_code/vendor/huawei/extra/build/build_script/kirin_kernel_release/kernel/block/hisi-blk-dump.c:0:36
	mov	x19, x1
	mov	x20, x0
	str	x8, [x23]
.Ltmp79:
	//DEBUG_VALUE: hisi_blk_dump_bio:count <- 0
	.loc	2 136 3 is_stmt 1       // /mnt/disk/jenkins/ci/workspace/chipset_pipeline_release/opensource/component_code/vendor/huawei/extra/build/build_script/kirin_kernel_release/kernel/block/hisi-blk-dump.c:136:3
	ldr	w1, [x0, #16]
.Ltmp80:
	.loc	2 135 15                // /mnt/disk/jenkins/ci/workspace/chipset_pipeline_release/opensource/component_code/vendor/huawei/extra/build/build_script/kirin_kernel_release/kernel/block/hisi-blk-dump.c:135:15
	add	x2, sp, #12             // =12
	mov	w3, #10
	.loc	2 136 3                 // /mnt/disk/jenkins/ci/workspace/chipset_pipeline_release/opensource/component_code/vendor/huawei/extra/build/build_script/kirin_kernel_release/kernel/block/hisi-blk-dump.c:136:3
	and	x0, x1, #0xff
.Ltmp81:
	.loc	2 135 15                // /mnt/disk/jenkins/ci/workspace/chipset_pipeline_release/opensource/component_code/vendor/huawei/extra/build/build_script/kirin_kernel_release/kernel/block/hisi-blk-dump.c:135:15
	bl	hisi_blk_io_type_parse
.Ltmp82:
	.loc	2 139 9                 // /mnt/disk/jenkins/ci/workspace/chipset_pipeline_release/opensource/component_code/vendor/huawei/extra/build/build_script/kirin_kernel_release/kernel/block/hisi-blk-dump.c:139:9
	ldr	x4, [x20, #144]
.Ltmp83:
	.loc	2 135 15                // /mnt/disk/jenkins/ci/workspace/chipset_pipeline_release/opensource/component_code/vendor/huawei/extra/build/build_script/kirin_kernel_release/kernel/block/hisi-blk-dump.c:135:15
	mov	x21, x0
.Ltmp84:
	//DEBUG_VALUE: hisi_blk_dump_bio:i <- 0
	//DEBUG_VALUE: hisi_blk_dump_bio:type <- $x21
	.loc	2 139 7                 // /mnt/disk/jenkins/ci/workspace/chipset_pipeline_release/opensource/component_code/vendor/huawei/extra/build/build_script/kirin_kernel_release/kernel/block/hisi-blk-dump.c:139:7
	cbz	x4, .LBB2_9
.Ltmp85:
// %bb.1:
	//DEBUG_VALUE: hisi_blk_dump_bio:type <- $x21
	.loc	2 142 35                // /mnt/disk/jenkins/ci/workspace/chipset_pipeline_release/opensource/component_code/vendor/huawei/extra/build/build_script/kirin_kernel_release/kernel/block/hisi-blk-dump.c:142:35
	adrp	x8, bio_stage_cfg
	ldr	x3, [x8, :lo12:bio_stage_cfg]
	.loc	2 141 12                // /mnt/disk/jenkins/ci/workspace/chipset_pipeline_release/opensource/component_code/vendor/huawei/extra/build/build_script/kirin_kernel_release/kernel/block/hisi-blk-dump.c:141:12
	adrp	x2, .L.str
	add	x2, x2, :lo12:.L.str
	add	x0, sp, #24             // =24
	orr	w1, wzr, #0x200
	bl	snprintf
	mov	w22, w0
.Ltmp86:
	//DEBUG_VALUE: hisi_blk_dump_bio:count <- $w22
	//DEBUG_VALUE: hisi_blk_dump_bio:count <- $w22
	//DEBUG_VALUE: hisi_blk_dump_bio:i <- 1
	//DEBUG_VALUE: hisi_blk_dump_bio:i <- [DW_OP_plus_uconst 1, DW_OP_stack_value] undef
	.loc	2 139 9                 // /mnt/disk/jenkins/ci/workspace/chipset_pipeline_release/opensource/component_code/vendor/huawei/extra/build/build_script/kirin_kernel_release/kernel/block/hisi-blk-dump.c:139:9
	ldr	x4, [x20, #152]
.Ltmp87:
	.loc	2 139 7 is_stmt 0       // /mnt/disk/jenkins/ci/workspace/chipset_pipeline_release/opensource/component_code/vendor/huawei/extra/build/build_script/kirin_kernel_release/kernel/block/hisi-blk-dump.c:139:7
	cbz	x4, .LBB2_3
.Ltmp88:
.LBB2_2:
	//DEBUG_VALUE: hisi_blk_dump_bio:count <- $w22
	//DEBUG_VALUE: hisi_blk_dump_bio:type <- $x21
	.loc	2 142 35 is_stmt 1      // /mnt/disk/jenkins/ci/workspace/chipset_pipeline_release/opensource/component_code/vendor/huawei/extra/build/build_script/kirin_kernel_release/kernel/block/hisi-blk-dump.c:142:35
	adrp	x10, bio_stage_cfg+16
	ldr	x3, [x10, :lo12:bio_stage_cfg+16]
	.loc	2 141 25                // /mnt/disk/jenkins/ci/workspace/chipset_pipeline_release/opensource/component_code/vendor/huawei/extra/build/build_script/kirin_kernel_release/kernel/block/hisi-blk-dump.c:141:25
	sxtw	x8, w22
	add	x9, sp, #24             // =24
	add	x0, x9, x8
	orr	w9, wzr, #0x200
	.loc	2 141 12 is_stmt 0      // /mnt/disk/jenkins/ci/workspace/chipset_pipeline_release/opensource/component_code/vendor/huawei/extra/build/build_script/kirin_kernel_release/kernel/block/hisi-blk-dump.c:141:12
	adrp	x2, .L.str
	.loc	2 141 56                // /mnt/disk/jenkins/ci/workspace/chipset_pipeline_release/opensource/component_code/vendor/huawei/extra/build/build_script/kirin_kernel_release/kernel/block/hisi-blk-dump.c:141:56
	sub	x1, x9, x8
	.loc	2 141 12                // /mnt/disk/jenkins/ci/workspace/chipset_pipeline_release/opensource/component_code/vendor/huawei/extra/build/build_script/kirin_kernel_release/kernel/block/hisi-blk-dump.c:141:12
	add	x2, x2, :lo12:.L.str
	bl	snprintf
	.loc	2 141 9                 // /mnt/disk/jenkins/ci/workspace/chipset_pipeline_release/opensource/component_code/vendor/huawei/extra/build/build_script/kirin_kernel_release/kernel/block/hisi-blk-dump.c:141:9
	add	w22, w0, w22
.Ltmp89:
	//DEBUG_VALUE: hisi_blk_dump_bio:count <- $w22
.LBB2_3:
	//DEBUG_VALUE: hisi_blk_dump_bio:count <- $w22
	//DEBUG_VALUE: hisi_blk_dump_bio:type <- $x21
	//DEBUG_VALUE: hisi_blk_dump_bio:count <- $w22
	//DEBUG_VALUE: hisi_blk_dump_bio:i <- 2
	//DEBUG_VALUE: hisi_blk_dump_bio:i <- [DW_OP_plus_uconst 1, DW_OP_stack_value] undef
	.loc	2 139 9 is_stmt 1       // /mnt/disk/jenkins/ci/workspace/chipset_pipeline_release/opensource/component_code/vendor/huawei/extra/build/build_script/kirin_kernel_release/kernel/block/hisi-blk-dump.c:139:9
	ldr	x4, [x20, #160]
	cbz	x4, .LBB2_5
.Ltmp90:
// %bb.4:
	//DEBUG_VALUE: hisi_blk_dump_bio:count <- $w22
	//DEBUG_VALUE: hisi_blk_dump_bio:type <- $x21
	.loc	2 142 35                // /mnt/disk/jenkins/ci/workspace/chipset_pipeline_release/opensource/component_code/vendor/huawei/extra/build/build_script/kirin_kernel_release/kernel/block/hisi-blk-dump.c:142:35
	adrp	x10, bio_stage_cfg+32
	ldr	x3, [x10, :lo12:bio_stage_cfg+32]
	.loc	2 141 25                // /mnt/disk/jenkins/ci/workspace/chipset_pipeline_release/opensource/component_code/vendor/huawei/extra/build/build_script/kirin_kernel_release/kernel/block/hisi-blk-dump.c:141:25
	sxtw	x8, w22
	add	x9, sp, #24             // =24
	add	x0, x9, x8
	orr	w9, wzr, #0x200
	.loc	2 141 12 is_stmt 0      // /mnt/disk/jenkins/ci/workspace/chipset_pipeline_release/opensource/component_code/vendor/huawei/extra/build/build_script/kirin_kernel_release/kernel/block/hisi-blk-dump.c:141:12
	adrp	x2, .L.str
	.loc	2 141 56                // /mnt/disk/jenkins/ci/workspace/chipset_pipeline_release/opensource/component_code/vendor/huawei/extra/build/build_script/kirin_kernel_release/kernel/block/hisi-blk-dump.c:141:56
	sub	x1, x9, x8
	.loc	2 141 12                // /mnt/disk/jenkins/ci/workspace/chipset_pipeline_release/opensource/component_code/vendor/huawei/extra/build/build_script/kirin_kernel_release/kernel/block/hisi-blk-dump.c:141:12
	add	x2, x2, :lo12:.L.str
	bl	snprintf
	.loc	2 141 9                 // /mnt/disk/jenkins/ci/workspace/chipset_pipeline_release/opensource/component_code/vendor/huawei/extra/build/build_script/kirin_kernel_release/kernel/block/hisi-blk-dump.c:141:9
	add	w22, w0, w22
.Ltmp91:
	//DEBUG_VALUE: hisi_blk_dump_bio:count <- $w22
.LBB2_5:
	//DEBUG_VALUE: hisi_blk_dump_bio:count <- $w22
	//DEBUG_VALUE: hisi_blk_dump_bio:type <- $x21
	//DEBUG_VALUE: hisi_blk_dump_bio:count <- $w22
	//DEBUG_VALUE: hisi_blk_dump_bio:i <- 3
	//DEBUG_VALUE: hisi_blk_dump_bio:i <- [DW_OP_plus_uconst 1, DW_OP_stack_value] undef
	.loc	2 139 9 is_stmt 1       // /mnt/disk/jenkins/ci/workspace/chipset_pipeline_release/opensource/component_code/vendor/huawei/extra/build/build_script/kirin_kernel_release/kernel/block/hisi-blk-dump.c:139:9
	ldr	x4, [x20, #168]
	cbz	x4, .LBB2_7
.Ltmp92:
// %bb.6:
	//DEBUG_VALUE: hisi_blk_dump_bio:count <- $w22
	//DEBUG_VALUE: hisi_blk_dump_bio:type <- $x21
	.loc	2 142 35                // /mnt/disk/jenkins/ci/workspace/chipset_pipeline_release/opensource/component_code/vendor/huawei/extra/build/build_script/kirin_kernel_release/kernel/block/hisi-blk-dump.c:142:35
	adrp	x10, bio_stage_cfg+48
	ldr	x3, [x10, :lo12:bio_stage_cfg+48]
	.loc	2 141 25                // /mnt/disk/jenkins/ci/workspace/chipset_pipeline_release/opensource/component_code/vendor/huawei/extra/build/build_script/kirin_kernel_release/kernel/block/hisi-blk-dump.c:141:25
	sxtw	x8, w22
	add	x9, sp, #24             // =24
	add	x0, x9, x8
	orr	w9, wzr, #0x200
	.loc	2 141 12 is_stmt 0      // /mnt/disk/jenkins/ci/workspace/chipset_pipeline_release/opensource/component_code/vendor/huawei/extra/build/build_script/kirin_kernel_release/kernel/block/hisi-blk-dump.c:141:12
	adrp	x2, .L.str
	.loc	2 141 56                // /mnt/disk/jenkins/ci/workspace/chipset_pipeline_release/opensource/component_code/vendor/huawei/extra/build/build_script/kirin_kernel_release/kernel/block/hisi-blk-dump.c:141:56
	sub	x1, x9, x8
	.loc	2 141 12                // /mnt/disk/jenkins/ci/workspace/chipset_pipeline_release/opensource/component_code/vendor/huawei/extra/build/build_script/kirin_kernel_release/kernel/block/hisi-blk-dump.c:141:12
	add	x2, x2, :lo12:.L.str
	bl	snprintf
.Ltmp93:
.LBB2_7:
	//DEBUG_VALUE: hisi_blk_dump_bio:count <- $w22
	//DEBUG_VALUE: hisi_blk_dump_bio:type <- $x21
	//DEBUG_VALUE: hisi_blk_dump_bio:i <- [DW_OP_plus_uconst 1, DW_OP_stack_value] undef
	.loc	2 146 20 is_stmt 1      // /mnt/disk/jenkins/ci/workspace/chipset_pipeline_release/opensource/component_code/vendor/huawei/extra/build/build_script/kirin_kernel_release/kernel/block/hisi-blk-dump.c:146:20
	ldr	x8, [x20, #104]
	.loc	2 0 0 is_stmt 0         // /mnt/disk/jenkins/ci/workspace/chipset_pipeline_release/opensource/component_code/vendor/huawei/extra/build/build_script/kirin_kernel_release/kernel/block/hisi-blk-dump.c:0:0
	ldr	w4, [x20, #48]
	cbz	x8, .LBB2_10
.Ltmp94:
// %bb.8:
	//DEBUG_VALUE: hisi_blk_dump_bio:count <- $w22
	//DEBUG_VALUE: hisi_blk_dump_bio:type <- $x21
	.loc	2 155 3 is_stmt 1       // /mnt/disk/jenkins/ci/workspace/chipset_pipeline_release/opensource/component_code/vendor/huawei/extra/build/build_script/kirin_kernel_release/kernel/block/hisi-blk-dump.c:155:3
	ldr	w5, [x20, #112]
	adrp	x0, .L.str.7
	add	x6, x20, #120           // =120
	add	x0, x0, :lo12:.L.str.7
	mov	x1, x19
	mov	x2, x20
	mov	x3, x21
	bl	printk
	b	.LBB2_11
.Ltmp95:
.LBB2_9:
	//DEBUG_VALUE: hisi_blk_dump_bio:type <- $x21
	.loc	2 0 0 is_stmt 0         // /mnt/disk/jenkins/ci/workspace/chipset_pipeline_release/opensource/component_code/vendor/huawei/extra/build/build_script/kirin_kernel_release/kernel/block/hisi-blk-dump.c:0:0
	mov	w22, wzr
.Ltmp96:
	//DEBUG_VALUE: hisi_blk_dump_bio:count <- $w22
	//DEBUG_VALUE: hisi_blk_dump_bio:i <- 1
	//DEBUG_VALUE: hisi_blk_dump_bio:i <- [DW_OP_plus_uconst 1, DW_OP_stack_value] undef
	.loc	2 139 9 is_stmt 1       // /mnt/disk/jenkins/ci/workspace/chipset_pipeline_release/opensource/component_code/vendor/huawei/extra/build/build_script/kirin_kernel_release/kernel/block/hisi-blk-dump.c:139:9
	ldr	x4, [x20, #152]
.Ltmp97:
	.loc	2 139 7 is_stmt 0       // /mnt/disk/jenkins/ci/workspace/chipset_pipeline_release/opensource/component_code/vendor/huawei/extra/build/build_script/kirin_kernel_release/kernel/block/hisi-blk-dump.c:139:7
	cbnz	x4, .LBB2_2
	b	.LBB2_3
.Ltmp98:
.LBB2_10:
	//DEBUG_VALUE: hisi_blk_dump_bio:count <- $w22
	//DEBUG_VALUE: hisi_blk_dump_bio:type <- $x21
	.loc	2 162 3 is_stmt 1       // /mnt/disk/jenkins/ci/workspace/chipset_pipeline_release/opensource/component_code/vendor/huawei/extra/build/build_script/kirin_kernel_release/kernel/block/hisi-blk-dump.c:162:3
	adrp	x0, .L.str.8
	add	x0, x0, :lo12:.L.str.8
	mov	x1, x19
	mov	x2, x20
	mov	x3, x21
	bl	printk
.Ltmp99:
.LBB2_11:
	//DEBUG_VALUE: hisi_blk_dump_bio:count <- $w22
	//DEBUG_VALUE: hisi_blk_dump_bio:type <- $x21
	.loc	2 165 2                 // /mnt/disk/jenkins/ci/workspace/chipset_pipeline_release/opensource/component_code/vendor/huawei/extra/build/build_script/kirin_kernel_release/kernel/block/hisi-blk-dump.c:165:2
	bl	ktime_get
	mov	x3, x0
	adrp	x0, .L.str.9
	add	x0, x0, :lo12:.L.str.9
	add	x2, sp, #24             // =24
	mov	x1, x19
	bl	printk
.Ltmp100:
	.loc	2 167 20                // /mnt/disk/jenkins/ci/workspace/chipset_pipeline_release/opensource/component_code/vendor/huawei/extra/build/build_script/kirin_kernel_release/kernel/block/hisi-blk-dump.c:167:20
	ldr	x0, [x20, #96]
.Ltmp101:
	.loc	2 167 6 is_stmt 0       // /mnt/disk/jenkins/ci/workspace/chipset_pipeline_release/opensource/component_code/vendor/huawei/extra/build/build_script/kirin_kernel_release/kernel/block/hisi-blk-dump.c:167:6
	cbz	x0, .LBB2_13
.Ltmp102:
// %bb.12:
	//DEBUG_VALUE: hisi_blk_dump_bio:count <- $w22
	//DEBUG_VALUE: hisi_blk_dump_bio:type <- $x21
	.loc	2 168 3 is_stmt 1       // /mnt/disk/jenkins/ci/workspace/chipset_pipeline_release/opensource/component_code/vendor/huawei/extra/build/build_script/kirin_kernel_release/kernel/block/hisi-blk-dump.c:168:3
	mov	x1, x19
	bl	hisi_blk_dump_request
.Ltmp103:
.LBB2_13:
	//DEBUG_VALUE: hisi_blk_dump_bio:count <- $w22
	//DEBUG_VALUE: hisi_blk_dump_bio:type <- $x21
	.loc	2 0 3 is_stmt 0         // /mnt/disk/jenkins/ci/workspace/chipset_pipeline_release/opensource/component_code/vendor/huawei/extra/build/build_script/kirin_kernel_release/kernel/block/hisi-blk-dump.c:0:3
	adrp	x9, __stack_chk_guard
	ldr	x8, [x23]
	ldr	x9, [x9, :lo12:__stack_chk_guard]
	cmp	x9, x8
	b.ne	.LBB2_15
.Ltmp104:
// %bb.14:
	//DEBUG_VALUE: hisi_blk_dump_bio:count <- $w22
	//DEBUG_VALUE: hisi_blk_dump_bio:type <- $x21
	.loc	2 169 1 is_stmt 1       // /mnt/disk/jenkins/ci/workspace/chipset_pipeline_release/opensource/component_code/vendor/huawei/extra/build/build_script/kirin_kernel_release/kernel/block/hisi-blk-dump.c:169:1
	add	sp, sp, #544            // =544
	ldp	x29, x30, [sp, #48]     // 16-byte Folded Reload
	ldp	x20, x19, [sp, #32]     // 16-byte Folded Reload
	ldp	x22, x21, [sp, #16]     // 16-byte Folded Reload
.Ltmp105:
	ldp	x28, x23, [sp], #64     // 16-byte Folded Reload
	ret
.Ltmp106:
.LBB2_15:
	//DEBUG_VALUE: hisi_blk_dump_bio:count <- $w22
	//DEBUG_VALUE: hisi_blk_dump_bio:type <- $x21
	.loc	2 0 1 is_stmt 0         // /mnt/disk/jenkins/ci/workspace/chipset_pipeline_release/opensource/component_code/vendor/huawei/extra/build/build_script/kirin_kernel_release/kernel/block/hisi-blk-dump.c:0:1
	bl	__stack_chk_fail
.Lfunc_end2:
	.size	hisi_blk_dump_bio, .Lfunc_end2-hisi_blk_dump_bio
	.cfi_endproc
                                        // -- End function
	.section	.text.hisi_blk_dump_queue_status2,"ax",@progbits
	.hidden	hisi_blk_dump_queue_status2 // -- Begin function hisi_blk_dump_queue_status2
	.globl	hisi_blk_dump_queue_status2
	.p2align	2
	.type	hisi_blk_dump_queue_status2,@function
hisi_blk_dump_queue_status2:            // @hisi_blk_dump_queue_status2
.Lfunc_begin3:
	.loc	2 200 0 is_stmt 1       // /mnt/disk/jenkins/ci/workspace/chipset_pipeline_release/opensource/component_code/vendor/huawei/extra/build/build_script/kirin_kernel_release/kernel/block/hisi-blk-dump.c:200:0
	.cfi_startproc
// %bb.0:
	stp	x24, x23, [sp, #-64]!   // 16-byte Folded Spill
	stp	x22, x21, [sp, #16]     // 16-byte Folded Spill
	stp	x20, x19, [sp, #32]     // 16-byte Folded Spill
	stp	x29, x30, [sp, #48]     // 16-byte Folded Spill
	add	x29, sp, #48            // =48
	.cfi_def_cfa w29, 16
	.cfi_offset w30, -8
	.cfi_offset w29, -16
	.cfi_offset w19, -24
	.cfi_offset w20, -32
	.cfi_offset w21, -40
	.cfi_offset w22, -48
	.cfi_offset w23, -56
	.cfi_offset w24, -64
	//DEBUG_VALUE: hisi_blk_dump_queue_status2:q <- $x0
	//DEBUG_VALUE: hisi_blk_dump_queue_status2:out_buf <- $x1
	//DEBUG_VALUE: hisi_blk_dump_queue_status2:length <- $x2
	//DEBUG_VALUE: hisi_blk_dump_queue_status2:need_print <- $w3
	mov	x22, x2
.Ltmp107:
	.loc	2 204 3 prologue_end    // /mnt/disk/jenkins/ci/workspace/chipset_pipeline_release/opensource/component_code/vendor/huawei/extra/build/build_script/kirin_kernel_release/kernel/block/hisi-blk-dump.c:204:3
	adrp	x2, .L.str.10
.Ltmp108:
	.loc	2 0 3 is_stmt 0         // /mnt/disk/jenkins/ci/workspace/chipset_pipeline_release/opensource/component_code/vendor/huawei/extra/build/build_script/kirin_kernel_release/kernel/block/hisi-blk-dump.c:0:3
	mov	x20, x1
	mov	x23, x0
.Ltmp109:
	//DEBUG_VALUE: hisi_blk_dump_queue_status2:print_offset <- 0
	//DEBUG_VALUE: hisi_blk_dump_queue_status2:offset <- 0
	//DEBUG_VALUE: hisi_blk_dump_queue_status2:need_print <- $w21
	//DEBUG_VALUE: hisi_blk_dump_queue_status2:length <- $x22
	//DEBUG_VALUE: hisi_blk_dump_queue_status2:out_buf <- $x20
	//DEBUG_VALUE: hisi_blk_dump_queue_status2:q <- $x23
	.loc	2 204 3                 // /mnt/disk/jenkins/ci/workspace/chipset_pipeline_release/opensource/component_code/vendor/huawei/extra/build/build_script/kirin_kernel_release/kernel/block/hisi-blk-dump.c:204:3
	add	x2, x2, :lo12:.L.str.10
	mov	x0, x1
	mov	x1, x22
	mov	w21, w3
.Ltmp110:
	bl	snprintf
                                        // kill: def $w0 killed $w0 def $x0
	sxtw	x19, w0
.Ltmp111:
	//DEBUG_VALUE: hisi_blk_dump_queue_status2:print_offset <- $x19
	//DEBUG_VALUE: hisi_blk_dump_queue_status2:offset <- $x19
	.loc	2 205 6 is_stmt 1       // /mnt/disk/jenkins/ci/workspace/chipset_pipeline_release/opensource/component_code/vendor/huawei/extra/build/build_script/kirin_kernel_release/kernel/block/hisi-blk-dump.c:205:6
	tbz	w21, #0, .LBB3_2
.Ltmp112:
// %bb.1:
	//DEBUG_VALUE: hisi_blk_dump_queue_status2:offset <- $x19
	//DEBUG_VALUE: hisi_blk_dump_queue_status2:print_offset <- $x19
	//DEBUG_VALUE: hisi_blk_dump_queue_status2:q <- $x23
	//DEBUG_VALUE: hisi_blk_dump_queue_status2:out_buf <- $x20
	//DEBUG_VALUE: hisi_blk_dump_queue_status2:length <- $x22
	.loc	2 206 3                 // /mnt/disk/jenkins/ci/workspace/chipset_pipeline_release/opensource/component_code/vendor/huawei/extra/build/build_script/kirin_kernel_release/kernel/block/hisi-blk-dump.c:206:3
	adrp	x0, .L.str.11
	add	x0, x0, :lo12:.L.str.11
	mov	x1, x20
	bl	printk
.Ltmp113:
	.loc	2 0 0 is_stmt 0         // /mnt/disk/jenkins/ci/workspace/chipset_pipeline_release/opensource/component_code/vendor/huawei/extra/build/build_script/kirin_kernel_release/kernel/block/hisi-blk-dump.c:0:0
	mov	x24, x19
.Ltmp114:
	//DEBUG_VALUE: hisi_blk_dump_queue_status2:print_offset <- $x24
	.loc	2 209 6 is_stmt 1       // /mnt/disk/jenkins/ci/workspace/chipset_pipeline_release/opensource/component_code/vendor/huawei/extra/build/build_script/kirin_kernel_release/kernel/block/hisi-blk-dump.c:209:6
	cmp	x19, x22
	b.lo	.LBB3_3
	b	.LBB3_9
.Ltmp115:
.LBB3_2:
	//DEBUG_VALUE: hisi_blk_dump_queue_status2:offset <- $x19
	//DEBUG_VALUE: hisi_blk_dump_queue_status2:print_offset <- $x19
	//DEBUG_VALUE: hisi_blk_dump_queue_status2:q <- $x23
	//DEBUG_VALUE: hisi_blk_dump_queue_status2:out_buf <- $x20
	//DEBUG_VALUE: hisi_blk_dump_queue_status2:length <- $x22
	.loc	2 0 0 is_stmt 0         // /mnt/disk/jenkins/ci/workspace/chipset_pipeline_release/opensource/component_code/vendor/huawei/extra/build/build_script/kirin_kernel_release/kernel/block/hisi-blk-dump.c:0:0
	mov	x24, xzr
.Ltmp116:
	//DEBUG_VALUE: hisi_blk_dump_queue_status2:print_offset <- $x24
	.loc	2 209 6                 // /mnt/disk/jenkins/ci/workspace/chipset_pipeline_release/opensource/component_code/vendor/huawei/extra/build/build_script/kirin_kernel_release/kernel/block/hisi-blk-dump.c:209:6
	cmp	x19, x22
	b.hs	.LBB3_9
.Ltmp117:
.LBB3_3:
	//DEBUG_VALUE: hisi_blk_dump_queue_status2:print_offset <- $x24
	//DEBUG_VALUE: hisi_blk_dump_queue_status2:offset <- $x19
	//DEBUG_VALUE: hisi_blk_dump_queue_status2:q <- $x23
	//DEBUG_VALUE: hisi_blk_dump_queue_status2:out_buf <- $x20
	//DEBUG_VALUE: hisi_blk_dump_queue_status2:length <- $x22
	.loc	2 212 20 is_stmt 1      // /mnt/disk/jenkins/ci/workspace/chipset_pipeline_release/opensource/component_code/vendor/huawei/extra/build/build_script/kirin_kernel_release/kernel/block/hisi-blk-dump.c:212:20
	ldr	w8, [x23, #1684]
	.loc	2 0 0 is_stmt 0         // /mnt/disk/jenkins/ci/workspace/chipset_pipeline_release/opensource/component_code/vendor/huawei/extra/build/build_script/kirin_kernel_release/kernel/block/hisi-blk-dump.c:0:0
	add	x0, x20, x19
	sub	x1, x22, x19
.Ltmp118:
	.loc	2 212 6                 // /mnt/disk/jenkins/ci/workspace/chipset_pipeline_release/opensource/component_code/vendor/huawei/extra/build/build_script/kirin_kernel_release/kernel/block/hisi-blk-dump.c:212:6
	cbz	w8, .LBB3_10
.Ltmp119:
// %bb.4:
	//DEBUG_VALUE: hisi_blk_dump_queue_status2:print_offset <- $x24
	//DEBUG_VALUE: hisi_blk_dump_queue_status2:offset <- $x19
	//DEBUG_VALUE: hisi_blk_dump_queue_status2:q <- $x23
	//DEBUG_VALUE: hisi_blk_dump_queue_status2:out_buf <- $x20
	//DEBUG_VALUE: hisi_blk_dump_queue_status2:length <- $x22
	.loc	2 216 18 is_stmt 1      // /mnt/disk/jenkins/ci/workspace/chipset_pipeline_release/opensource/component_code/vendor/huawei/extra/build/build_script/kirin_kernel_release/kernel/block/hisi-blk-dump.c:216:18
	ldr	w3, [x23, #1688]
	.loc	2 213 13                // /mnt/disk/jenkins/ci/workspace/chipset_pipeline_release/opensource/component_code/vendor/huawei/extra/build/build_script/kirin_kernel_release/kernel/block/hisi-blk-dump.c:213:13
	adrp	x2, .L.str.12
	add	x2, x2, :lo12:.L.str.12
	bl	snprintf
.Ltmp120:
	.loc	2 0 0 is_stmt 0         // /mnt/disk/jenkins/ci/workspace/chipset_pipeline_release/opensource/component_code/vendor/huawei/extra/build/build_script/kirin_kernel_release/kernel/block/hisi-blk-dump.c:0:0
	add	x19, x19, w0, sxtw
.Ltmp121:
	//DEBUG_VALUE: hisi_blk_dump_queue_status2:print_offset <- $x19
	//DEBUG_VALUE: hisi_blk_dump_queue_status2:offset <- $x19
	.loc	2 221 6 is_stmt 1       // /mnt/disk/jenkins/ci/workspace/chipset_pipeline_release/opensource/component_code/vendor/huawei/extra/build/build_script/kirin_kernel_release/kernel/block/hisi-blk-dump.c:221:6
	tbz	w21, #0, .LBB3_6
.Ltmp122:
.LBB3_5:
	//DEBUG_VALUE: hisi_blk_dump_queue_status2:offset <- $x19
	//DEBUG_VALUE: hisi_blk_dump_queue_status2:print_offset <- $x19
	//DEBUG_VALUE: hisi_blk_dump_queue_status2:q <- $x23
	//DEBUG_VALUE: hisi_blk_dump_queue_status2:out_buf <- $x20
	//DEBUG_VALUE: hisi_blk_dump_queue_status2:length <- $x22
	.loc	2 222 3                 // /mnt/disk/jenkins/ci/workspace/chipset_pipeline_release/opensource/component_code/vendor/huawei/extra/build/build_script/kirin_kernel_release/kernel/block/hisi-blk-dump.c:222:3
	adrp	x0, .L.str.11
	add	x1, x20, x24
	add	x0, x0, :lo12:.L.str.11
	bl	printk
.Ltmp123:
	.loc	2 0 0 is_stmt 0         // /mnt/disk/jenkins/ci/workspace/chipset_pipeline_release/opensource/component_code/vendor/huawei/extra/build/build_script/kirin_kernel_release/kernel/block/hisi-blk-dump.c:0:0
	mov	x24, x19
.Ltmp124:
.LBB3_6:
	//DEBUG_VALUE: hisi_blk_dump_queue_status2:offset <- $x19
	//DEBUG_VALUE: hisi_blk_dump_queue_status2:print_offset <- $x19
	//DEBUG_VALUE: hisi_blk_dump_queue_status2:q <- $x23
	//DEBUG_VALUE: hisi_blk_dump_queue_status2:out_buf <- $x20
	//DEBUG_VALUE: hisi_blk_dump_queue_status2:length <- $x22
	//DEBUG_VALUE: hisi_blk_dump_queue_status2:print_offset <- $x24
	.loc	2 225 6 is_stmt 1       // /mnt/disk/jenkins/ci/workspace/chipset_pipeline_release/opensource/component_code/vendor/huawei/extra/build/build_script/kirin_kernel_release/kernel/block/hisi-blk-dump.c:225:6
	cmp	x19, x22
	b.hs	.LBB3_9
.Ltmp125:
// %bb.7:
	//DEBUG_VALUE: hisi_blk_dump_queue_status2:print_offset <- $x24
	//DEBUG_VALUE: hisi_blk_dump_queue_status2:offset <- $x19
	//DEBUG_VALUE: hisi_blk_dump_queue_status2:q <- $x23
	//DEBUG_VALUE: hisi_blk_dump_queue_status2:out_buf <- $x20
	//DEBUG_VALUE: hisi_blk_dump_queue_status2:length <- $x22
	.loc	2 230 17                // /mnt/disk/jenkins/ci/workspace/chipset_pipeline_release/opensource/component_code/vendor/huawei/extra/build/build_script/kirin_kernel_release/kernel/block/hisi-blk-dump.c:230:17
	ldr	w8, [x23, #1680]
	.loc	2 230 3 is_stmt 0       // /mnt/disk/jenkins/ci/workspace/chipset_pipeline_release/opensource/component_code/vendor/huawei/extra/build/build_script/kirin_kernel_release/kernel/block/hisi-blk-dump.c:230:3
	adrp	x9, .L.str.15
	adrp	x10, .L.str.16
	add	x9, x9, :lo12:.L.str.15
	add	x10, x10, :lo12:.L.str.16
	cmp	w8, #0                  // =0
	.loc	2 228 12 is_stmt 1      // /mnt/disk/jenkins/ci/workspace/chipset_pipeline_release/opensource/component_code/vendor/huawei/extra/build/build_script/kirin_kernel_release/kernel/block/hisi-blk-dump.c:228:12
	adrp	x2, .L.str.14
	.loc	2 228 29 is_stmt 0      // /mnt/disk/jenkins/ci/workspace/chipset_pipeline_release/opensource/component_code/vendor/huawei/extra/build/build_script/kirin_kernel_release/kernel/block/hisi-blk-dump.c:228:29
	add	x0, x20, x19
	.loc	2 228 46                // /mnt/disk/jenkins/ci/workspace/chipset_pipeline_release/opensource/component_code/vendor/huawei/extra/build/build_script/kirin_kernel_release/kernel/block/hisi-blk-dump.c:228:46
	sub	x1, x22, x19
	.loc	2 230 3 is_stmt 1       // /mnt/disk/jenkins/ci/workspace/chipset_pipeline_release/opensource/component_code/vendor/huawei/extra/build/build_script/kirin_kernel_release/kernel/block/hisi-blk-dump.c:230:3
	csel	x3, x10, x9, eq
	.loc	2 228 12                // /mnt/disk/jenkins/ci/workspace/chipset_pipeline_release/opensource/component_code/vendor/huawei/extra/build/build_script/kirin_kernel_release/kernel/block/hisi-blk-dump.c:228:12
	add	x2, x2, :lo12:.L.str.14
	bl	snprintf
	.loc	2 228 9 is_stmt 0       // /mnt/disk/jenkins/ci/workspace/chipset_pipeline_release/opensource/component_code/vendor/huawei/extra/build/build_script/kirin_kernel_release/kernel/block/hisi-blk-dump.c:228:9
	add	x19, x19, w0, sxtw
.Ltmp126:
	//DEBUG_VALUE: hisi_blk_dump_queue_status2:offset <- $x19
	.loc	2 231 6 is_stmt 1       // /mnt/disk/jenkins/ci/workspace/chipset_pipeline_release/opensource/component_code/vendor/huawei/extra/build/build_script/kirin_kernel_release/kernel/block/hisi-blk-dump.c:231:6
	tbz	w21, #0, .LBB3_9
.Ltmp127:
// %bb.8:
	//DEBUG_VALUE: hisi_blk_dump_queue_status2:print_offset <- $x24
	//DEBUG_VALUE: hisi_blk_dump_queue_status2:offset <- $x19
	//DEBUG_VALUE: hisi_blk_dump_queue_status2:q <- $x23
	//DEBUG_VALUE: hisi_blk_dump_queue_status2:out_buf <- $x20
	//DEBUG_VALUE: hisi_blk_dump_queue_status2:length <- $x22
	.loc	2 232 3                 // /mnt/disk/jenkins/ci/workspace/chipset_pipeline_release/opensource/component_code/vendor/huawei/extra/build/build_script/kirin_kernel_release/kernel/block/hisi-blk-dump.c:232:3
	adrp	x0, .L.str.11
	add	x1, x20, x24
	add	x0, x0, :lo12:.L.str.11
	bl	printk
.Ltmp128:
.LBB3_9:
	//DEBUG_VALUE: hisi_blk_dump_queue_status2:print_offset <- $x24
	//DEBUG_VALUE: hisi_blk_dump_queue_status2:offset <- $x19
	//DEBUG_VALUE: hisi_blk_dump_queue_status2:q <- $x23
	//DEBUG_VALUE: hisi_blk_dump_queue_status2:out_buf <- $x20
	//DEBUG_VALUE: hisi_blk_dump_queue_status2:length <- $x22
	.loc	2 237 2                 // /mnt/disk/jenkins/ci/workspace/chipset_pipeline_release/opensource/component_code/vendor/huawei/extra/build/build_script/kirin_kernel_release/kernel/block/hisi-blk-dump.c:237:2
	mov	x0, x19
.Ltmp129:
	//DEBUG_VALUE: hisi_blk_dump_queue_status2:offset <- undef
	ldp	x29, x30, [sp, #48]     // 16-byte Folded Reload
	ldp	x20, x19, [sp, #32]     // 16-byte Folded Reload
.Ltmp130:
	ldp	x22, x21, [sp, #16]     // 16-byte Folded Reload
.Ltmp131:
	ldp	x24, x23, [sp], #64     // 16-byte Folded Reload
.Ltmp132:
	ret
.LBB3_10:
.Ltmp133:
	//DEBUG_VALUE: hisi_blk_dump_queue_status2:print_offset <- $x24
	//DEBUG_VALUE: hisi_blk_dump_queue_status2:offset <- $x19
	//DEBUG_VALUE: hisi_blk_dump_queue_status2:q <- $x23
	//DEBUG_VALUE: hisi_blk_dump_queue_status2:out_buf <- $x20
	//DEBUG_VALUE: hisi_blk_dump_queue_status2:length <- $x22
	.loc	2 218 13                // /mnt/disk/jenkins/ci/workspace/chipset_pipeline_release/opensource/component_code/vendor/huawei/extra/build/build_script/kirin_kernel_release/kernel/block/hisi-blk-dump.c:218:13
	adrp	x2, .L.str.13
	add	x2, x2, :lo12:.L.str.13
	bl	snprintf
.Ltmp134:
	.loc	2 0 0 is_stmt 0         // /mnt/disk/jenkins/ci/workspace/chipset_pipeline_release/opensource/component_code/vendor/huawei/extra/build/build_script/kirin_kernel_release/kernel/block/hisi-blk-dump.c:0:0
	add	x19, x19, w0, sxtw
.Ltmp135:
	//DEBUG_VALUE: hisi_blk_dump_queue_status2:print_offset <- $x19
	//DEBUG_VALUE: hisi_blk_dump_queue_status2:offset <- $x19
	.loc	2 221 6 is_stmt 1       // /mnt/disk/jenkins/ci/workspace/chipset_pipeline_release/opensource/component_code/vendor/huawei/extra/build/build_script/kirin_kernel_release/kernel/block/hisi-blk-dump.c:221:6
	tbnz	w21, #0, .LBB3_5
	b	.LBB3_6
.Ltmp136:
.Lfunc_end3:
	.size	hisi_blk_dump_queue_status2, .Lfunc_end3-hisi_blk_dump_queue_status2
	.cfi_endproc
                                        // -- End function
	.section	.text.hisi_blk_dump_queue_status,"ax",@progbits
	.hidden	hisi_blk_dump_queue_status // -- Begin function hisi_blk_dump_queue_status
	.globl	hisi_blk_dump_queue_status
	.p2align	2
	.type	hisi_blk_dump_queue_status,@function
hisi_blk_dump_queue_status:             // @hisi_blk_dump_queue_status
.Lfunc_begin4:
	.loc	2 245 0                 // /mnt/disk/jenkins/ci/workspace/chipset_pipeline_release/opensource/component_code/vendor/huawei/extra/build/build_script/kirin_kernel_release/kernel/block/hisi-blk-dump.c:245:0
	.cfi_startproc
// %bb.0:
	stp	x28, x21, [sp, #-48]!   // 16-byte Folded Spill
	stp	x20, x19, [sp, #16]     // 16-byte Folded Spill
	stp	x29, x30, [sp, #32]     // 16-byte Folded Spill
	add	x29, sp, #32            // =32
	sub	sp, sp, #528            // =528
	.cfi_def_cfa w29, 16
	.cfi_offset w30, -8
	.cfi_offset w29, -16
	.cfi_offset w19, -24
	.cfi_offset w20, -32
	.cfi_offset w21, -40
	.cfi_offset w28, -48
	//DEBUG_VALUE: hisi_blk_dump_queue_status:q <- $x0
	//DEBUG_VALUE: hisi_blk_dump_queue_status:prefix <- $x1
	//DEBUG_VALUE: hisi_blk_dump_queue_status:scenario <- $w2
	adrp	x8, __stack_chk_guard
	ldr	x8, [x8, :lo12:__stack_chk_guard]
	stur	x8, [x29, #-40]
.Ltmp137:
	.loc	2 246 20 prologue_end   // /mnt/disk/jenkins/ci/workspace/chipset_pipeline_release/opensource/component_code/vendor/huawei/extra/build/build_script/kirin_kernel_release/kernel/block/hisi-blk-dump.c:246:20
	ldr	x8, [x0, #1536]
.Ltmp138:
	.loc	2 246 6 is_stmt 0       // /mnt/disk/jenkins/ci/workspace/chipset_pipeline_release/opensource/component_code/vendor/huawei/extra/build/build_script/kirin_kernel_release/kernel/block/hisi-blk-dump.c:246:6
	cbz	x8, .LBB4_6
.Ltmp139:
// %bb.1:
	//DEBUG_VALUE: hisi_blk_dump_queue_status:scenario <- $w2
	//DEBUG_VALUE: hisi_blk_dump_queue_status:prefix <- $x1
	//DEBUG_VALUE: hisi_blk_dump_queue_status:q <- $x0
	.loc	2 258 3 is_stmt 1       // /mnt/disk/jenkins/ci/workspace/chipset_pipeline_release/opensource/component_code/vendor/huawei/extra/build/build_script/kirin_kernel_release/kernel/block/hisi-blk-dump.c:258:3
	ldrb	w9, [x0, #1544]
.Ltmp140:
	.file	130 "/mnt/disk/jenkins/ci/workspace/chipset_pipeline_release/opensource/component_code/vendor/huawei/extra/build/build_script/kirin_kernel_release/kernel/include/linux/compiler.h"
	.loc	130 186 2               // /mnt/disk/jenkins/ci/workspace/chipset_pipeline_release/opensource/component_code/vendor/huawei/extra/build/build_script/kirin_kernel_release/kernel/include/linux/compiler.h:186:2
	ldr	w4, [x8, #992]
.Ltmp141:
	//DEBUG_VALUE: __read_once_size:p <- [DW_OP_plus_uconst 996, DW_OP_stack_value] $x8
	//DEBUG_VALUE: __read_once_size:size <- 4
	//DEBUG_VALUE: __read_once_size:res <- undef
	.loc	130 186 2 is_stmt 0     // /mnt/disk/jenkins/ci/workspace/chipset_pipeline_release/opensource/component_code/vendor/huawei/extra/build/build_script/kirin_kernel_release/kernel/include/linux/compiler.h:186:2
	ldr	w5, [x8, #996]
	mov	w19, w2
.Ltmp142:
	//DEBUG_VALUE: hisi_blk_dump_queue_status:scenario <- $w19
	.loc	2 258 3 is_stmt 1       // /mnt/disk/jenkins/ci/workspace/chipset_pipeline_release/opensource/component_code/vendor/huawei/extra/build/build_script/kirin_kernel_release/kernel/block/hisi-blk-dump.c:258:3
	add	x2, x8, #12             // =12
	adrp	x10, .L.str.18
	adrp	x8, .L.str.19
.Ltmp143:
	.loc	2 0 3 is_stmt 0         // /mnt/disk/jenkins/ci/workspace/chipset_pipeline_release/opensource/component_code/vendor/huawei/extra/build/build_script/kirin_kernel_release/kernel/block/hisi-blk-dump.c:0:3
	mov	x20, x0
.Ltmp144:
	//DEBUG_VALUE: hisi_blk_dump_queue_status:q <- $x20
	.loc	2 258 3                 // /mnt/disk/jenkins/ci/workspace/chipset_pipeline_release/opensource/component_code/vendor/huawei/extra/build/build_script/kirin_kernel_release/kernel/block/hisi-blk-dump.c:258:3
	add	x10, x10, :lo12:.L.str.18
	add	x8, x8, :lo12:.L.str.19
	cmp	w9, #0                  // =0
	adrp	x0, .L.str.17
	csel	x3, x8, x10, eq
.Ltmp145:
	//DEBUG_VALUE: __read_once_size:p <- [DW_OP_plus_uconst 992, DW_OP_stack_value] undef
	//DEBUG_VALUE: __read_once_size:size <- 4
	//DEBUG_VALUE: __read_once_size:res <- undef
	add	x0, x0, :lo12:.L.str.17
	mov	x21, x1
.Ltmp146:
	//DEBUG_VALUE: hisi_blk_dump_queue_status:prefix <- $x21
	bl	printk
	.loc	2 267 7 is_stmt 1       // /mnt/disk/jenkins/ci/workspace/chipset_pipeline_release/opensource/component_code/vendor/huawei/extra/build/build_script/kirin_kernel_release/kernel/block/hisi-blk-dump.c:267:7
	cmp	w19, #1                 // =1
	b.ne	.LBB4_3
.Ltmp147:
// %bb.2:
	//DEBUG_VALUE: hisi_blk_dump_queue_status:prefix <- $x21
	//DEBUG_VALUE: hisi_blk_dump_queue_status:q <- $x20
	//DEBUG_VALUE: hisi_blk_dump_queue_status:scenario <- $w19
	.loc	2 269 4                 // /mnt/disk/jenkins/ci/workspace/chipset_pipeline_release/opensource/component_code/vendor/huawei/extra/build/build_script/kirin_kernel_release/kernel/block/hisi-blk-dump.c:269:4
	add	x1, sp, #8              // =8
	orr	w2, wzr, #0x200
	orr	w3, wzr, #0x1
	mov	x0, x20
	bl	hisi_blk_dump_queue_status2
.Ltmp148:
.LBB4_3:
	//DEBUG_VALUE: hisi_blk_dump_queue_status:prefix <- $x21
	//DEBUG_VALUE: hisi_blk_dump_queue_status:q <- $x20
	//DEBUG_VALUE: hisi_blk_dump_queue_status:scenario <- $w19
	.loc	2 272 10                // /mnt/disk/jenkins/ci/workspace/chipset_pipeline_release/opensource/component_code/vendor/huawei/extra/build/build_script/kirin_kernel_release/kernel/block/hisi-blk-dump.c:272:10
	ldr	x8, [x20, #1800]
	.loc	2 272 25 is_stmt 0      // /mnt/disk/jenkins/ci/workspace/chipset_pipeline_release/opensource/component_code/vendor/huawei/extra/build/build_script/kirin_kernel_release/kernel/block/hisi-blk-dump.c:272:25
	cbz	x8, .LBB4_6
.Ltmp149:
// %bb.4:
	//DEBUG_VALUE: hisi_blk_dump_queue_status:prefix <- $x21
	//DEBUG_VALUE: hisi_blk_dump_queue_status:q <- $x20
	//DEBUG_VALUE: hisi_blk_dump_queue_status:scenario <- $w19
	.loc	2 272 47                // /mnt/disk/jenkins/ci/workspace/chipset_pipeline_release/opensource/component_code/vendor/huawei/extra/build/build_script/kirin_kernel_release/kernel/block/hisi-blk-dump.c:272:47
	ldr	x8, [x8, #184]
.Ltmp150:
	.loc	2 272 7                 // /mnt/disk/jenkins/ci/workspace/chipset_pipeline_release/opensource/component_code/vendor/huawei/extra/build/build_script/kirin_kernel_release/kernel/block/hisi-blk-dump.c:272:7
	cbz	x8, .LBB4_6
.Ltmp151:
// %bb.5:
	//DEBUG_VALUE: hisi_blk_dump_queue_status:prefix <- $x21
	//DEBUG_VALUE: hisi_blk_dump_queue_status:q <- $x20
	//DEBUG_VALUE: hisi_blk_dump_queue_status:scenario <- $w19
	.loc	2 273 4 is_stmt 1       // /mnt/disk/jenkins/ci/workspace/chipset_pipeline_release/opensource/component_code/vendor/huawei/extra/build/build_script/kirin_kernel_release/kernel/block/hisi-blk-dump.c:273:4
	mov	x0, x20
	mov	x1, x21
	mov	w2, w19
	blr	x8
.Ltmp152:
.LBB4_6:
	.loc	2 0 4 is_stmt 0         // /mnt/disk/jenkins/ci/workspace/chipset_pipeline_release/opensource/component_code/vendor/huawei/extra/build/build_script/kirin_kernel_release/kernel/block/hisi-blk-dump.c:0:4
	adrp	x9, __stack_chk_guard
	ldur	x8, [x29, #-40]
	ldr	x9, [x9, :lo12:__stack_chk_guard]
	cmp	x9, x8
	b.ne	.LBB4_8
// %bb.7:
	.loc	2 276 1 is_stmt 1       // /mnt/disk/jenkins/ci/workspace/chipset_pipeline_release/opensource/component_code/vendor/huawei/extra/build/build_script/kirin_kernel_release/kernel/block/hisi-blk-dump.c:276:1
	add	sp, sp, #528            // =528
	ldp	x29, x30, [sp, #32]     // 16-byte Folded Reload
	ldp	x20, x19, [sp, #16]     // 16-byte Folded Reload
	ldp	x28, x21, [sp], #48     // 16-byte Folded Reload
	ret
.Ltmp153:
.LBB4_8:
	.loc	2 0 1 is_stmt 0         // /mnt/disk/jenkins/ci/workspace/chipset_pipeline_release/opensource/component_code/vendor/huawei/extra/build/build_script/kirin_kernel_release/kernel/block/hisi-blk-dump.c:0:1
	bl	__stack_chk_fail
.Lfunc_end4:
	.size	hisi_blk_dump_queue_status, .Lfunc_end4-hisi_blk_dump_queue_status
	.cfi_endproc
                                        // -- End function
	.section	.text.hisi_blk_dump_lld_status,"ax",@progbits
	.hidden	hisi_blk_dump_lld_status // -- Begin function hisi_blk_dump_lld_status
	.globl	hisi_blk_dump_lld_status
	.p2align	2
	.type	hisi_blk_dump_lld_status,@function
hisi_blk_dump_lld_status:               // @hisi_blk_dump_lld_status
.Lfunc_begin5:
	.loc	2 283 0 is_stmt 1       // /mnt/disk/jenkins/ci/workspace/chipset_pipeline_release/opensource/component_code/vendor/huawei/extra/build/build_script/kirin_kernel_release/kernel/block/hisi-blk-dump.c:283:0
	.cfi_startproc
// %bb.0:
	stp	x26, x25, [sp, #-80]!   // 16-byte Folded Spill
	stp	x24, x23, [sp, #16]     // 16-byte Folded Spill
	stp	x22, x21, [sp, #32]     // 16-byte Folded Spill
	stp	x20, x19, [sp, #48]     // 16-byte Folded Spill
	stp	x29, x30, [sp, #64]     // 16-byte Folded Spill
	add	x29, sp, #64            // =64
	.cfi_def_cfa w29, 16
	.cfi_offset w30, -8
	.cfi_offset w29, -16
	.cfi_offset w19, -24
	.cfi_offset w20, -32
	.cfi_offset w21, -40
	.cfi_offset w22, -48
	.cfi_offset w23, -56
	.cfi_offset w24, -64
	.cfi_offset w25, -72
	.cfi_offset w26, -80
	//DEBUG_VALUE: hisi_blk_dump_lld_status:lld <- $x0
	//DEBUG_VALUE: hisi_blk_dump_lld_status:out_buf <- $x1
	//DEBUG_VALUE: hisi_blk_dump_lld_status:length <- $x2
	//DEBUG_VALUE: hisi_blk_dump_lld_status:need_print <- $w3
	mov	x20, x2
.Ltmp154:
	.loc	2 286 12 prologue_end   // /mnt/disk/jenkins/ci/workspace/chipset_pipeline_release/opensource/component_code/vendor/huawei/extra/build/build_script/kirin_kernel_release/kernel/block/hisi-blk-dump.c:286:12
	adrp	x2, .L.str.20
.Ltmp155:
	.loc	2 0 12 is_stmt 0        // /mnt/disk/jenkins/ci/workspace/chipset_pipeline_release/opensource/component_code/vendor/huawei/extra/build/build_script/kirin_kernel_release/kernel/block/hisi-blk-dump.c:0:12
	mov	x21, x1
	mov	x22, x0
.Ltmp156:
	//DEBUG_VALUE: hisi_blk_dump_lld_status:print_offset <- 0
	//DEBUG_VALUE: hisi_blk_dump_lld_status:offset <- 0
	//DEBUG_VALUE: hisi_blk_dump_lld_status:need_print <- $w23
	//DEBUG_VALUE: hisi_blk_dump_lld_status:length <- $x20
	//DEBUG_VALUE: hisi_blk_dump_lld_status:out_buf <- $x21
	//DEBUG_VALUE: hisi_blk_dump_lld_status:lld <- $x22
	.loc	2 286 12                // /mnt/disk/jenkins/ci/workspace/chipset_pipeline_release/opensource/component_code/vendor/huawei/extra/build/build_script/kirin_kernel_release/kernel/block/hisi-blk-dump.c:286:12
	add	x2, x2, :lo12:.L.str.20
	mov	x0, x1
	mov	x1, x20
	mov	w23, w3
.Ltmp157:
	bl	snprintf
                                        // kill: def $w0 killed $w0 def $x0
	sxtw	x19, w0
.Ltmp158:
	//DEBUG_VALUE: hisi_blk_dump_lld_status:print_offset <- $x19
	//DEBUG_VALUE: hisi_blk_dump_lld_status:offset <- $x19
	.loc	2 287 6 is_stmt 1       // /mnt/disk/jenkins/ci/workspace/chipset_pipeline_release/opensource/component_code/vendor/huawei/extra/build/build_script/kirin_kernel_release/kernel/block/hisi-blk-dump.c:287:6
	tbz	w23, #0, .LBB5_2
.Ltmp159:
// %bb.1:
	//DEBUG_VALUE: hisi_blk_dump_lld_status:offset <- $x19
	//DEBUG_VALUE: hisi_blk_dump_lld_status:print_offset <- $x19
	//DEBUG_VALUE: hisi_blk_dump_lld_status:lld <- $x22
	//DEBUG_VALUE: hisi_blk_dump_lld_status:out_buf <- $x21
	//DEBUG_VALUE: hisi_blk_dump_lld_status:length <- $x20
	.loc	2 288 3                 // /mnt/disk/jenkins/ci/workspace/chipset_pipeline_release/opensource/component_code/vendor/huawei/extra/build/build_script/kirin_kernel_release/kernel/block/hisi-blk-dump.c:288:3
	adrp	x0, .L.str.11
	add	x0, x0, :lo12:.L.str.11
	mov	x1, x21
	bl	printk
.Ltmp160:
	.loc	2 0 0 is_stmt 0         // /mnt/disk/jenkins/ci/workspace/chipset_pipeline_release/opensource/component_code/vendor/huawei/extra/build/build_script/kirin_kernel_release/kernel/block/hisi-blk-dump.c:0:0
	mov	x26, x19
.Ltmp161:
	//DEBUG_VALUE: hisi_blk_dump_lld_status:print_offset <- $x26
	.loc	2 291 6 is_stmt 1       // /mnt/disk/jenkins/ci/workspace/chipset_pipeline_release/opensource/component_code/vendor/huawei/extra/build/build_script/kirin_kernel_release/kernel/block/hisi-blk-dump.c:291:6
	cmp	x19, x20
	b.lo	.LBB5_3
	b	.LBB5_33
.Ltmp162:
.LBB5_2:
	//DEBUG_VALUE: hisi_blk_dump_lld_status:offset <- $x19
	//DEBUG_VALUE: hisi_blk_dump_lld_status:print_offset <- $x19
	//DEBUG_VALUE: hisi_blk_dump_lld_status:lld <- $x22
	//DEBUG_VALUE: hisi_blk_dump_lld_status:out_buf <- $x21
	//DEBUG_VALUE: hisi_blk_dump_lld_status:length <- $x20
	.loc	2 0 0 is_stmt 0         // /mnt/disk/jenkins/ci/workspace/chipset_pipeline_release/opensource/component_code/vendor/huawei/extra/build/build_script/kirin_kernel_release/kernel/block/hisi-blk-dump.c:0:0
	mov	x26, xzr
.Ltmp163:
	//DEBUG_VALUE: hisi_blk_dump_lld_status:print_offset <- $x26
	.loc	2 291 6                 // /mnt/disk/jenkins/ci/workspace/chipset_pipeline_release/opensource/component_code/vendor/huawei/extra/build/build_script/kirin_kernel_release/kernel/block/hisi-blk-dump.c:291:6
	cmp	x19, x20
	b.hs	.LBB5_33
.Ltmp164:
.LBB5_3:
	//DEBUG_VALUE: hisi_blk_dump_lld_status:print_offset <- $x26
	//DEBUG_VALUE: hisi_blk_dump_lld_status:offset <- $x19
	//DEBUG_VALUE: hisi_blk_dump_lld_status:lld <- $x22
	//DEBUG_VALUE: hisi_blk_dump_lld_status:out_buf <- $x21
	//DEBUG_VALUE: hisi_blk_dump_lld_status:length <- $x20
	.loc	2 296 9 is_stmt 1       // /mnt/disk/jenkins/ci/workspace/chipset_pipeline_release/opensource/component_code/vendor/huawei/extra/build/build_script/kirin_kernel_release/kernel/block/hisi-blk-dump.c:296:9
	ldr	x8, [x22, #24]
	.loc	2 296 4 is_stmt 0       // /mnt/disk/jenkins/ci/workspace/chipset_pipeline_release/opensource/component_code/vendor/huawei/extra/build/build_script/kirin_kernel_release/kernel/block/hisi-blk-dump.c:296:4
	adrp	x24, .L.str.15
	adrp	x25, .L.str.16
	add	x24, x24, :lo12:.L.str.15
	add	x25, x25, :lo12:.L.str.16
	tst	x8, #0x1
	.loc	2 295 3 is_stmt 1       // /mnt/disk/jenkins/ci/workspace/chipset_pipeline_release/opensource/component_code/vendor/huawei/extra/build/build_script/kirin_kernel_release/kernel/block/hisi-blk-dump.c:295:3
	adrp	x2, .L.str.21
	.loc	2 295 20 is_stmt 0      // /mnt/disk/jenkins/ci/workspace/chipset_pipeline_release/opensource/component_code/vendor/huawei/extra/build/build_script/kirin_kernel_release/kernel/block/hisi-blk-dump.c:295:20
	add	x0, x21, x19
	.loc	2 295 37                // /mnt/disk/jenkins/ci/workspace/chipset_pipeline_release/opensource/component_code/vendor/huawei/extra/build/build_script/kirin_kernel_release/kernel/block/hisi-blk-dump.c:295:37
	sub	x1, x20, x19
	.loc	2 296 4 is_stmt 1       // /mnt/disk/jenkins/ci/workspace/chipset_pipeline_release/opensource/component_code/vendor/huawei/extra/build/build_script/kirin_kernel_release/kernel/block/hisi-blk-dump.c:296:4
	csel	x3, x25, x24, eq
	.loc	2 295 3                 // /mnt/disk/jenkins/ci/workspace/chipset_pipeline_release/opensource/component_code/vendor/huawei/extra/build/build_script/kirin_kernel_release/kernel/block/hisi-blk-dump.c:295:3
	add	x2, x2, :lo12:.L.str.21
	bl	snprintf
	.loc	2 294 9                 // /mnt/disk/jenkins/ci/workspace/chipset_pipeline_release/opensource/component_code/vendor/huawei/extra/build/build_script/kirin_kernel_release/kernel/block/hisi-blk-dump.c:294:9
	add	x19, x19, w0, sxtw
.Ltmp165:
	//DEBUG_VALUE: hisi_blk_dump_lld_status:print_offset <- $x19
	//DEBUG_VALUE: hisi_blk_dump_lld_status:offset <- $x19
	.loc	2 298 6                 // /mnt/disk/jenkins/ci/workspace/chipset_pipeline_release/opensource/component_code/vendor/huawei/extra/build/build_script/kirin_kernel_release/kernel/block/hisi-blk-dump.c:298:6
	tbz	w23, #0, .LBB5_5
.Ltmp166:
// %bb.4:
	//DEBUG_VALUE: hisi_blk_dump_lld_status:offset <- $x19
	//DEBUG_VALUE: hisi_blk_dump_lld_status:print_offset <- $x19
	//DEBUG_VALUE: hisi_blk_dump_lld_status:lld <- $x22
	//DEBUG_VALUE: hisi_blk_dump_lld_status:out_buf <- $x21
	//DEBUG_VALUE: hisi_blk_dump_lld_status:length <- $x20
	.loc	2 299 3                 // /mnt/disk/jenkins/ci/workspace/chipset_pipeline_release/opensource/component_code/vendor/huawei/extra/build/build_script/kirin_kernel_release/kernel/block/hisi-blk-dump.c:299:3
	adrp	x0, .L.str.11
	add	x1, x21, x26
	add	x0, x0, :lo12:.L.str.11
	bl	printk
.Ltmp167:
	.loc	2 0 0 is_stmt 0         // /mnt/disk/jenkins/ci/workspace/chipset_pipeline_release/opensource/component_code/vendor/huawei/extra/build/build_script/kirin_kernel_release/kernel/block/hisi-blk-dump.c:0:0
	mov	x26, x19
.Ltmp168:
.LBB5_5:
	//DEBUG_VALUE: hisi_blk_dump_lld_status:offset <- $x19
	//DEBUG_VALUE: hisi_blk_dump_lld_status:print_offset <- $x19
	//DEBUG_VALUE: hisi_blk_dump_lld_status:lld <- $x22
	//DEBUG_VALUE: hisi_blk_dump_lld_status:out_buf <- $x21
	//DEBUG_VALUE: hisi_blk_dump_lld_status:length <- $x20
	//DEBUG_VALUE: hisi_blk_dump_lld_status:print_offset <- $x26
	.loc	2 302 6 is_stmt 1       // /mnt/disk/jenkins/ci/workspace/chipset_pipeline_release/opensource/component_code/vendor/huawei/extra/build/build_script/kirin_kernel_release/kernel/block/hisi-blk-dump.c:302:6
	cmp	x19, x20
	b.hs	.LBB5_33
.Ltmp169:
// %bb.6:
	//DEBUG_VALUE: hisi_blk_dump_lld_status:print_offset <- $x26
	//DEBUG_VALUE: hisi_blk_dump_lld_status:offset <- $x19
	//DEBUG_VALUE: hisi_blk_dump_lld_status:lld <- $x22
	//DEBUG_VALUE: hisi_blk_dump_lld_status:out_buf <- $x21
	//DEBUG_VALUE: hisi_blk_dump_lld_status:length <- $x20
	.loc	2 305 6                 // /mnt/disk/jenkins/ci/workspace/chipset_pipeline_release/opensource/component_code/vendor/huawei/extra/build/build_script/kirin_kernel_release/kernel/block/hisi-blk-dump.c:305:6
	ldrb	w8, [x22, #24]
.Ltmp170:
	.loc	2 0 0 is_stmt 0         // /mnt/disk/jenkins/ci/workspace/chipset_pipeline_release/opensource/component_code/vendor/huawei/extra/build/build_script/kirin_kernel_release/kernel/block/hisi-blk-dump.c:0:0
	add	x0, x21, x19
	sub	x1, x20, x19
.Ltmp171:
	.loc	2 305 6                 // /mnt/disk/jenkins/ci/workspace/chipset_pipeline_release/opensource/component_code/vendor/huawei/extra/build/build_script/kirin_kernel_release/kernel/block/hisi-blk-dump.c:305:6
	tbnz	w8, #1, .LBB5_8
.Ltmp172:
// %bb.7:
	//DEBUG_VALUE: hisi_blk_dump_lld_status:print_offset <- $x26
	//DEBUG_VALUE: hisi_blk_dump_lld_status:offset <- $x19
	//DEBUG_VALUE: hisi_blk_dump_lld_status:lld <- $x22
	//DEBUG_VALUE: hisi_blk_dump_lld_status:out_buf <- $x21
	//DEBUG_VALUE: hisi_blk_dump_lld_status:length <- $x20
	.loc	2 311 13 is_stmt 1      // /mnt/disk/jenkins/ci/workspace/chipset_pipeline_release/opensource/component_code/vendor/huawei/extra/build/build_script/kirin_kernel_release/kernel/block/hisi-blk-dump.c:311:13
	adrp	x2, .L.str.13
	add	x2, x2, :lo12:.L.str.13
	bl	snprintf
.Ltmp173:
	.loc	2 0 0 is_stmt 0         // /mnt/disk/jenkins/ci/workspace/chipset_pipeline_release/opensource/component_code/vendor/huawei/extra/build/build_script/kirin_kernel_release/kernel/block/hisi-blk-dump.c:0:0
	add	x19, x19, w0, sxtw
.Ltmp174:
	//DEBUG_VALUE: hisi_blk_dump_lld_status:print_offset <- $x19
	//DEBUG_VALUE: hisi_blk_dump_lld_status:offset <- $x19
	.loc	2 314 6 is_stmt 1       // /mnt/disk/jenkins/ci/workspace/chipset_pipeline_release/opensource/component_code/vendor/huawei/extra/build/build_script/kirin_kernel_release/kernel/block/hisi-blk-dump.c:314:6
	tbnz	w23, #0, .LBB5_9
	b	.LBB5_10
.Ltmp175:
.LBB5_8:
	//DEBUG_VALUE: hisi_blk_dump_lld_status:print_offset <- $x26
	//DEBUG_VALUE: hisi_blk_dump_lld_status:offset <- $x19
	//DEBUG_VALUE: hisi_blk_dump_lld_status:lld <- $x22
	//DEBUG_VALUE: hisi_blk_dump_lld_status:out_buf <- $x21
	//DEBUG_VALUE: hisi_blk_dump_lld_status:length <- $x20
	.loc	2 309 9                 // /mnt/disk/jenkins/ci/workspace/chipset_pipeline_release/opensource/component_code/vendor/huawei/extra/build/build_script/kirin_kernel_release/kernel/block/hisi-blk-dump.c:309:9
	ldr	w3, [x22, #48]
	.loc	2 306 13                // /mnt/disk/jenkins/ci/workspace/chipset_pipeline_release/opensource/component_code/vendor/huawei/extra/build/build_script/kirin_kernel_release/kernel/block/hisi-blk-dump.c:306:13
	adrp	x2, .L.str.12
	add	x2, x2, :lo12:.L.str.12
	bl	snprintf
.Ltmp176:
	.loc	2 0 0 is_stmt 0         // /mnt/disk/jenkins/ci/workspace/chipset_pipeline_release/opensource/component_code/vendor/huawei/extra/build/build_script/kirin_kernel_release/kernel/block/hisi-blk-dump.c:0:0
	add	x19, x19, w0, sxtw
.Ltmp177:
	//DEBUG_VALUE: hisi_blk_dump_lld_status:print_offset <- $x19
	//DEBUG_VALUE: hisi_blk_dump_lld_status:offset <- $x19
	.loc	2 314 6 is_stmt 1       // /mnt/disk/jenkins/ci/workspace/chipset_pipeline_release/opensource/component_code/vendor/huawei/extra/build/build_script/kirin_kernel_release/kernel/block/hisi-blk-dump.c:314:6
	tbz	w23, #0, .LBB5_10
.Ltmp178:
.LBB5_9:
	//DEBUG_VALUE: hisi_blk_dump_lld_status:offset <- $x19
	//DEBUG_VALUE: hisi_blk_dump_lld_status:print_offset <- $x19
	//DEBUG_VALUE: hisi_blk_dump_lld_status:lld <- $x22
	//DEBUG_VALUE: hisi_blk_dump_lld_status:out_buf <- $x21
	//DEBUG_VALUE: hisi_blk_dump_lld_status:length <- $x20
	.loc	2 315 3                 // /mnt/disk/jenkins/ci/workspace/chipset_pipeline_release/opensource/component_code/vendor/huawei/extra/build/build_script/kirin_kernel_release/kernel/block/hisi-blk-dump.c:315:3
	adrp	x0, .L.str.11
	add	x1, x21, x26
	add	x0, x0, :lo12:.L.str.11
	bl	printk
.Ltmp179:
	.loc	2 0 0 is_stmt 0         // /mnt/disk/jenkins/ci/workspace/chipset_pipeline_release/opensource/component_code/vendor/huawei/extra/build/build_script/kirin_kernel_release/kernel/block/hisi-blk-dump.c:0:0
	mov	x26, x19
.Ltmp180:
.LBB5_10:
	//DEBUG_VALUE: hisi_blk_dump_lld_status:offset <- $x19
	//DEBUG_VALUE: hisi_blk_dump_lld_status:print_offset <- $x19
	//DEBUG_VALUE: hisi_blk_dump_lld_status:lld <- $x22
	//DEBUG_VALUE: hisi_blk_dump_lld_status:out_buf <- $x21
	//DEBUG_VALUE: hisi_blk_dump_lld_status:length <- $x20
	//DEBUG_VALUE: hisi_blk_dump_lld_status:print_offset <- $x26
	.loc	2 318 6 is_stmt 1       // /mnt/disk/jenkins/ci/workspace/chipset_pipeline_release/opensource/component_code/vendor/huawei/extra/build/build_script/kirin_kernel_release/kernel/block/hisi-blk-dump.c:318:6
	cmp	x19, x20
	b.hs	.LBB5_33
.Ltmp181:
// %bb.11:
	//DEBUG_VALUE: hisi_blk_dump_lld_status:print_offset <- $x26
	//DEBUG_VALUE: hisi_blk_dump_lld_status:offset <- $x19
	//DEBUG_VALUE: hisi_blk_dump_lld_status:lld <- $x22
	//DEBUG_VALUE: hisi_blk_dump_lld_status:out_buf <- $x21
	//DEBUG_VALUE: hisi_blk_dump_lld_status:length <- $x20
	.loc	2 323 8                 // /mnt/disk/jenkins/ci/workspace/chipset_pipeline_release/opensource/component_code/vendor/huawei/extra/build/build_script/kirin_kernel_release/kernel/block/hisi-blk-dump.c:323:8
	ldr	x8, [x22, #24]
	.loc	2 321 12                // /mnt/disk/jenkins/ci/workspace/chipset_pipeline_release/opensource/component_code/vendor/huawei/extra/build/build_script/kirin_kernel_release/kernel/block/hisi-blk-dump.c:321:12
	adrp	x2, .L.str.22
	.loc	2 321 29 is_stmt 0      // /mnt/disk/jenkins/ci/workspace/chipset_pipeline_release/opensource/component_code/vendor/huawei/extra/build/build_script/kirin_kernel_release/kernel/block/hisi-blk-dump.c:321:29
	add	x0, x21, x19
	.loc	2 321 46                // /mnt/disk/jenkins/ci/workspace/chipset_pipeline_release/opensource/component_code/vendor/huawei/extra/build/build_script/kirin_kernel_release/kernel/block/hisi-blk-dump.c:321:46
	sub	x1, x20, x19
	.loc	2 323 3 is_stmt 1       // /mnt/disk/jenkins/ci/workspace/chipset_pipeline_release/opensource/component_code/vendor/huawei/extra/build/build_script/kirin_kernel_release/kernel/block/hisi-blk-dump.c:323:3
	tst	x8, #0x8
	csel	x3, x25, x24, eq
	.loc	2 321 12                // /mnt/disk/jenkins/ci/workspace/chipset_pipeline_release/opensource/component_code/vendor/huawei/extra/build/build_script/kirin_kernel_release/kernel/block/hisi-blk-dump.c:321:12
	add	x2, x2, :lo12:.L.str.22
	bl	snprintf
	.loc	2 321 9 is_stmt 0       // /mnt/disk/jenkins/ci/workspace/chipset_pipeline_release/opensource/component_code/vendor/huawei/extra/build/build_script/kirin_kernel_release/kernel/block/hisi-blk-dump.c:321:9
	add	x19, x19, w0, sxtw
.Ltmp182:
	//DEBUG_VALUE: hisi_blk_dump_lld_status:offset <- $x19
	.loc	2 325 6 is_stmt 1       // /mnt/disk/jenkins/ci/workspace/chipset_pipeline_release/opensource/component_code/vendor/huawei/extra/build/build_script/kirin_kernel_release/kernel/block/hisi-blk-dump.c:325:6
	cmp	x19, x20
	b.hs	.LBB5_33
.Ltmp183:
// %bb.12:
	//DEBUG_VALUE: hisi_blk_dump_lld_status:print_offset <- $x26
	//DEBUG_VALUE: hisi_blk_dump_lld_status:offset <- $x19
	//DEBUG_VALUE: hisi_blk_dump_lld_status:lld <- $x22
	//DEBUG_VALUE: hisi_blk_dump_lld_status:out_buf <- $x21
	//DEBUG_VALUE: hisi_blk_dump_lld_status:length <- $x20
	.loc	2 327 24                // /mnt/disk/jenkins/ci/workspace/chipset_pipeline_release/opensource/component_code/vendor/huawei/extra/build/build_script/kirin_kernel_release/kernel/block/hisi-blk-dump.c:327:24
	ldr	w8, [x22, #360]
	.loc	2 327 2 is_stmt 0       // /mnt/disk/jenkins/ci/workspace/chipset_pipeline_release/opensource/component_code/vendor/huawei/extra/build/build_script/kirin_kernel_release/kernel/block/hisi-blk-dump.c:327:2
	cbz	w8, .LBB5_15
.Ltmp184:
// %bb.13:
	//DEBUG_VALUE: hisi_blk_dump_lld_status:print_offset <- $x26
	//DEBUG_VALUE: hisi_blk_dump_lld_status:offset <- $x19
	//DEBUG_VALUE: hisi_blk_dump_lld_status:lld <- $x22
	//DEBUG_VALUE: hisi_blk_dump_lld_status:out_buf <- $x21
	//DEBUG_VALUE: hisi_blk_dump_lld_status:length <- $x20
	cmp	w8, #1                  // =1
	b.ne	.LBB5_33
.Ltmp185:
// %bb.14:
	//DEBUG_VALUE: hisi_blk_dump_lld_status:print_offset <- $x26
	//DEBUG_VALUE: hisi_blk_dump_lld_status:offset <- $x19
	//DEBUG_VALUE: hisi_blk_dump_lld_status:lld <- $x22
	//DEBUG_VALUE: hisi_blk_dump_lld_status:out_buf <- $x21
	//DEBUG_VALUE: hisi_blk_dump_lld_status:length <- $x20
	.loc	2 0 2                   // /mnt/disk/jenkins/ci/workspace/chipset_pipeline_release/opensource/component_code/vendor/huawei/extra/build/build_script/kirin_kernel_release/kernel/block/hisi-blk-dump.c:0:2
	adrp	x2, .L.str.24
	add	x2, x2, :lo12:.L.str.24
	b	.LBB5_16
.Ltmp186:
.LBB5_15:
	//DEBUG_VALUE: hisi_blk_dump_lld_status:print_offset <- $x26
	//DEBUG_VALUE: hisi_blk_dump_lld_status:offset <- $x19
	//DEBUG_VALUE: hisi_blk_dump_lld_status:lld <- $x22
	//DEBUG_VALUE: hisi_blk_dump_lld_status:out_buf <- $x21
	//DEBUG_VALUE: hisi_blk_dump_lld_status:length <- $x20
	adrp	x2, .L.str.23
	add	x2, x2, :lo12:.L.str.23
.Ltmp187:
.LBB5_16:
	//DEBUG_VALUE: hisi_blk_dump_lld_status:print_offset <- $x26
	//DEBUG_VALUE: hisi_blk_dump_lld_status:offset <- $x19
	//DEBUG_VALUE: hisi_blk_dump_lld_status:lld <- $x22
	//DEBUG_VALUE: hisi_blk_dump_lld_status:out_buf <- $x21
	//DEBUG_VALUE: hisi_blk_dump_lld_status:length <- $x20
	add	x0, x21, x19
	sub	x1, x20, x19
	bl	snprintf
	add	x19, x19, w0, sxtw
.Ltmp188:
	//DEBUG_VALUE: hisi_blk_dump_lld_status:offset <- $x19
	.loc	2 339 6 is_stmt 1       // /mnt/disk/jenkins/ci/workspace/chipset_pipeline_release/opensource/component_code/vendor/huawei/extra/build/build_script/kirin_kernel_release/kernel/block/hisi-blk-dump.c:339:6
	cmp	x19, x20
	b.hs	.LBB5_33
.Ltmp189:
// %bb.17:
	//DEBUG_VALUE: hisi_blk_dump_lld_status:print_offset <- $x26
	//DEBUG_VALUE: hisi_blk_dump_lld_status:offset <- $x19
	//DEBUG_VALUE: hisi_blk_dump_lld_status:lld <- $x22
	//DEBUG_VALUE: hisi_blk_dump_lld_status:out_buf <- $x21
	//DEBUG_VALUE: hisi_blk_dump_lld_status:length <- $x20
	.loc	130 186 2               // /mnt/disk/jenkins/ci/workspace/chipset_pipeline_release/opensource/component_code/vendor/huawei/extra/build/build_script/kirin_kernel_release/kernel/include/linux/compiler.h:186:2
	ldr	w3, [x22, #288]
.Ltmp190:
	.loc	2 341 12                // /mnt/disk/jenkins/ci/workspace/chipset_pipeline_release/opensource/component_code/vendor/huawei/extra/build/build_script/kirin_kernel_release/kernel/block/hisi-blk-dump.c:341:12
	adrp	x2, .L.str.25
	.loc	2 341 29 is_stmt 0      // /mnt/disk/jenkins/ci/workspace/chipset_pipeline_release/opensource/component_code/vendor/huawei/extra/build/build_script/kirin_kernel_release/kernel/block/hisi-blk-dump.c:341:29
	add	x0, x21, x19
	.loc	2 341 46                // /mnt/disk/jenkins/ci/workspace/chipset_pipeline_release/opensource/component_code/vendor/huawei/extra/build/build_script/kirin_kernel_release/kernel/block/hisi-blk-dump.c:341:46
	sub	x1, x20, x19
.Ltmp191:
	//DEBUG_VALUE: __read_once_size:size <- 4
	//DEBUG_VALUE: __read_once_size:res <- undef
	//DEBUG_VALUE: __read_once_size:p <- [DW_OP_plus_uconst 288, DW_OP_stack_value] $x22
	.loc	2 341 12                // /mnt/disk/jenkins/ci/workspace/chipset_pipeline_release/opensource/component_code/vendor/huawei/extra/build/build_script/kirin_kernel_release/kernel/block/hisi-blk-dump.c:341:12
	add	x2, x2, :lo12:.L.str.25
	bl	snprintf
	.loc	2 341 9                 // /mnt/disk/jenkins/ci/workspace/chipset_pipeline_release/opensource/component_code/vendor/huawei/extra/build/build_script/kirin_kernel_release/kernel/block/hisi-blk-dump.c:341:9
	add	x19, x19, w0, sxtw
.Ltmp192:
	//DEBUG_VALUE: hisi_blk_dump_lld_status:print_offset <- $x19
	//DEBUG_VALUE: hisi_blk_dump_lld_status:offset <- $x19
	.loc	2 343 6 is_stmt 1       // /mnt/disk/jenkins/ci/workspace/chipset_pipeline_release/opensource/component_code/vendor/huawei/extra/build/build_script/kirin_kernel_release/kernel/block/hisi-blk-dump.c:343:6
	tbz	w23, #0, .LBB5_19
.Ltmp193:
// %bb.18:
	//DEBUG_VALUE: hisi_blk_dump_lld_status:offset <- $x19
	//DEBUG_VALUE: hisi_blk_dump_lld_status:print_offset <- $x19
	//DEBUG_VALUE: hisi_blk_dump_lld_status:lld <- $x22
	//DEBUG_VALUE: hisi_blk_dump_lld_status:out_buf <- $x21
	//DEBUG_VALUE: hisi_blk_dump_lld_status:length <- $x20
	.loc	2 344 3                 // /mnt/disk/jenkins/ci/workspace/chipset_pipeline_release/opensource/component_code/vendor/huawei/extra/build/build_script/kirin_kernel_release/kernel/block/hisi-blk-dump.c:344:3
	adrp	x0, .L.str.11
	add	x1, x21, x26
	add	x0, x0, :lo12:.L.str.11
	bl	printk
.Ltmp194:
	.loc	2 0 0 is_stmt 0         // /mnt/disk/jenkins/ci/workspace/chipset_pipeline_release/opensource/component_code/vendor/huawei/extra/build/build_script/kirin_kernel_release/kernel/block/hisi-blk-dump.c:0:0
	mov	x26, x19
.Ltmp195:
.LBB5_19:
	//DEBUG_VALUE: hisi_blk_dump_lld_status:offset <- $x19
	//DEBUG_VALUE: hisi_blk_dump_lld_status:print_offset <- $x19
	//DEBUG_VALUE: hisi_blk_dump_lld_status:lld <- $x22
	//DEBUG_VALUE: hisi_blk_dump_lld_status:out_buf <- $x21
	//DEBUG_VALUE: hisi_blk_dump_lld_status:length <- $x20
	//DEBUG_VALUE: hisi_blk_dump_lld_status:print_offset <- $x26
	.loc	2 347 6 is_stmt 1       // /mnt/disk/jenkins/ci/workspace/chipset_pipeline_release/opensource/component_code/vendor/huawei/extra/build/build_script/kirin_kernel_release/kernel/block/hisi-blk-dump.c:347:6
	cmp	x19, x20
	b.hs	.LBB5_33
.Ltmp196:
// %bb.20:
	//DEBUG_VALUE: hisi_blk_dump_lld_status:print_offset <- $x26
	//DEBUG_VALUE: hisi_blk_dump_lld_status:offset <- $x19
	//DEBUG_VALUE: hisi_blk_dump_lld_status:lld <- $x22
	//DEBUG_VALUE: hisi_blk_dump_lld_status:out_buf <- $x21
	//DEBUG_VALUE: hisi_blk_dump_lld_status:length <- $x20
	.loc	2 352 8                 // /mnt/disk/jenkins/ci/workspace/chipset_pipeline_release/opensource/component_code/vendor/huawei/extra/build/build_script/kirin_kernel_release/kernel/block/hisi-blk-dump.c:352:8
	ldr	x8, [x22, #24]
	.loc	2 350 12                // /mnt/disk/jenkins/ci/workspace/chipset_pipeline_release/opensource/component_code/vendor/huawei/extra/build/build_script/kirin_kernel_release/kernel/block/hisi-blk-dump.c:350:12
	adrp	x2, .L.str.14
	.loc	2 350 29 is_stmt 0      // /mnt/disk/jenkins/ci/workspace/chipset_pipeline_release/opensource/component_code/vendor/huawei/extra/build/build_script/kirin_kernel_release/kernel/block/hisi-blk-dump.c:350:29
	add	x0, x21, x19
	.loc	2 350 46                // /mnt/disk/jenkins/ci/workspace/chipset_pipeline_release/opensource/component_code/vendor/huawei/extra/build/build_script/kirin_kernel_release/kernel/block/hisi-blk-dump.c:350:46
	sub	x1, x20, x19
	.loc	2 352 3 is_stmt 1       // /mnt/disk/jenkins/ci/workspace/chipset_pipeline_release/opensource/component_code/vendor/huawei/extra/build/build_script/kirin_kernel_release/kernel/block/hisi-blk-dump.c:352:3
	tst	x8, #0x4
	csel	x3, x25, x24, eq
	.loc	2 350 12                // /mnt/disk/jenkins/ci/workspace/chipset_pipeline_release/opensource/component_code/vendor/huawei/extra/build/build_script/kirin_kernel_release/kernel/block/hisi-blk-dump.c:350:12
	add	x2, x2, :lo12:.L.str.14
	bl	snprintf
	.loc	2 350 9 is_stmt 0       // /mnt/disk/jenkins/ci/workspace/chipset_pipeline_release/opensource/component_code/vendor/huawei/extra/build/build_script/kirin_kernel_release/kernel/block/hisi-blk-dump.c:350:9
	add	x19, x19, w0, sxtw
.Ltmp197:
	//DEBUG_VALUE: hisi_blk_dump_lld_status:print_offset <- $x19
	//DEBUG_VALUE: hisi_blk_dump_lld_status:offset <- $x19
	.loc	2 354 6 is_stmt 1       // /mnt/disk/jenkins/ci/workspace/chipset_pipeline_release/opensource/component_code/vendor/huawei/extra/build/build_script/kirin_kernel_release/kernel/block/hisi-blk-dump.c:354:6
	tbz	w23, #0, .LBB5_22
.Ltmp198:
// %bb.21:
	//DEBUG_VALUE: hisi_blk_dump_lld_status:offset <- $x19
	//DEBUG_VALUE: hisi_blk_dump_lld_status:print_offset <- $x19
	//DEBUG_VALUE: hisi_blk_dump_lld_status:lld <- $x22
	//DEBUG_VALUE: hisi_blk_dump_lld_status:out_buf <- $x21
	//DEBUG_VALUE: hisi_blk_dump_lld_status:length <- $x20
	.loc	2 355 3                 // /mnt/disk/jenkins/ci/workspace/chipset_pipeline_release/opensource/component_code/vendor/huawei/extra/build/build_script/kirin_kernel_release/kernel/block/hisi-blk-dump.c:355:3
	adrp	x0, .L.str.11
	add	x1, x21, x26
	add	x0, x0, :lo12:.L.str.11
	bl	printk
.Ltmp199:
	.loc	2 0 0 is_stmt 0         // /mnt/disk/jenkins/ci/workspace/chipset_pipeline_release/opensource/component_code/vendor/huawei/extra/build/build_script/kirin_kernel_release/kernel/block/hisi-blk-dump.c:0:0
	mov	x26, x19
.Ltmp200:
.LBB5_22:
	//DEBUG_VALUE: hisi_blk_dump_lld_status:offset <- $x19
	//DEBUG_VALUE: hisi_blk_dump_lld_status:print_offset <- $x19
	//DEBUG_VALUE: hisi_blk_dump_lld_status:lld <- $x22
	//DEBUG_VALUE: hisi_blk_dump_lld_status:out_buf <- $x21
	//DEBUG_VALUE: hisi_blk_dump_lld_status:length <- $x20
	//DEBUG_VALUE: hisi_blk_dump_lld_status:print_offset <- $x26
	.loc	2 358 6 is_stmt 1       // /mnt/disk/jenkins/ci/workspace/chipset_pipeline_release/opensource/component_code/vendor/huawei/extra/build/build_script/kirin_kernel_release/kernel/block/hisi-blk-dump.c:358:6
	cmp	x19, x20
	b.hs	.LBB5_33
.Ltmp201:
// %bb.23:
	//DEBUG_VALUE: hisi_blk_dump_lld_status:print_offset <- $x26
	//DEBUG_VALUE: hisi_blk_dump_lld_status:offset <- $x19
	//DEBUG_VALUE: hisi_blk_dump_lld_status:lld <- $x22
	//DEBUG_VALUE: hisi_blk_dump_lld_status:out_buf <- $x21
	//DEBUG_VALUE: hisi_blk_dump_lld_status:length <- $x20
	.loc	2 363 8                 // /mnt/disk/jenkins/ci/workspace/chipset_pipeline_release/opensource/component_code/vendor/huawei/extra/build/build_script/kirin_kernel_release/kernel/block/hisi-blk-dump.c:363:8
	ldr	x8, [x22, #24]
	.loc	2 361 12                // /mnt/disk/jenkins/ci/workspace/chipset_pipeline_release/opensource/component_code/vendor/huawei/extra/build/build_script/kirin_kernel_release/kernel/block/hisi-blk-dump.c:361:12
	adrp	x2, .L.str.26
	.loc	2 361 29 is_stmt 0      // /mnt/disk/jenkins/ci/workspace/chipset_pipeline_release/opensource/component_code/vendor/huawei/extra/build/build_script/kirin_kernel_release/kernel/block/hisi-blk-dump.c:361:29
	add	x0, x21, x19
	.loc	2 361 46                // /mnt/disk/jenkins/ci/workspace/chipset_pipeline_release/opensource/component_code/vendor/huawei/extra/build/build_script/kirin_kernel_release/kernel/block/hisi-blk-dump.c:361:46
	sub	x1, x20, x19
	.loc	2 363 3 is_stmt 1       // /mnt/disk/jenkins/ci/workspace/chipset_pipeline_release/opensource/component_code/vendor/huawei/extra/build/build_script/kirin_kernel_release/kernel/block/hisi-blk-dump.c:363:3
	tst	x8, #0x10
	csel	x3, x25, x24, eq
	.loc	2 361 12                // /mnt/disk/jenkins/ci/workspace/chipset_pipeline_release/opensource/component_code/vendor/huawei/extra/build/build_script/kirin_kernel_release/kernel/block/hisi-blk-dump.c:361:12
	add	x2, x2, :lo12:.L.str.26
	bl	snprintf
	.loc	2 361 9 is_stmt 0       // /mnt/disk/jenkins/ci/workspace/chipset_pipeline_release/opensource/component_code/vendor/huawei/extra/build/build_script/kirin_kernel_release/kernel/block/hisi-blk-dump.c:361:9
	add	x19, x19, w0, sxtw
.Ltmp202:
	//DEBUG_VALUE: hisi_blk_dump_lld_status:print_offset <- $x19
	//DEBUG_VALUE: hisi_blk_dump_lld_status:offset <- $x19
	.loc	2 365 6 is_stmt 1       // /mnt/disk/jenkins/ci/workspace/chipset_pipeline_release/opensource/component_code/vendor/huawei/extra/build/build_script/kirin_kernel_release/kernel/block/hisi-blk-dump.c:365:6
	tbz	w23, #0, .LBB5_25
.Ltmp203:
// %bb.24:
	//DEBUG_VALUE: hisi_blk_dump_lld_status:offset <- $x19
	//DEBUG_VALUE: hisi_blk_dump_lld_status:print_offset <- $x19
	//DEBUG_VALUE: hisi_blk_dump_lld_status:lld <- $x22
	//DEBUG_VALUE: hisi_blk_dump_lld_status:out_buf <- $x21
	//DEBUG_VALUE: hisi_blk_dump_lld_status:length <- $x20
	.loc	2 366 3                 // /mnt/disk/jenkins/ci/workspace/chipset_pipeline_release/opensource/component_code/vendor/huawei/extra/build/build_script/kirin_kernel_release/kernel/block/hisi-blk-dump.c:366:3
	adrp	x0, .L.str.11
	add	x1, x21, x26
	add	x0, x0, :lo12:.L.str.11
	bl	printk
.Ltmp204:
	.loc	2 0 0 is_stmt 0         // /mnt/disk/jenkins/ci/workspace/chipset_pipeline_release/opensource/component_code/vendor/huawei/extra/build/build_script/kirin_kernel_release/kernel/block/hisi-blk-dump.c:0:0
	mov	x26, x19
.Ltmp205:
.LBB5_25:
	//DEBUG_VALUE: hisi_blk_dump_lld_status:offset <- $x19
	//DEBUG_VALUE: hisi_blk_dump_lld_status:print_offset <- $x19
	//DEBUG_VALUE: hisi_blk_dump_lld_status:lld <- $x22
	//DEBUG_VALUE: hisi_blk_dump_lld_status:out_buf <- $x21
	//DEBUG_VALUE: hisi_blk_dump_lld_status:length <- $x20
	//DEBUG_VALUE: hisi_blk_dump_lld_status:print_offset <- $x26
	.loc	2 369 6 is_stmt 1       // /mnt/disk/jenkins/ci/workspace/chipset_pipeline_release/opensource/component_code/vendor/huawei/extra/build/build_script/kirin_kernel_release/kernel/block/hisi-blk-dump.c:369:6
	cmp	x19, x20
	b.hs	.LBB5_33
.Ltmp206:
// %bb.26:
	//DEBUG_VALUE: hisi_blk_dump_lld_status:print_offset <- $x26
	//DEBUG_VALUE: hisi_blk_dump_lld_status:offset <- $x19
	//DEBUG_VALUE: hisi_blk_dump_lld_status:lld <- $x22
	//DEBUG_VALUE: hisi_blk_dump_lld_status:out_buf <- $x21
	//DEBUG_VALUE: hisi_blk_dump_lld_status:length <- $x20
	.loc	2 372 12                // /mnt/disk/jenkins/ci/workspace/chipset_pipeline_release/opensource/component_code/vendor/huawei/extra/build/build_script/kirin_kernel_release/kernel/block/hisi-blk-dump.c:372:12
	adrp	x2, .L.str.27
	.loc	2 372 29 is_stmt 0      // /mnt/disk/jenkins/ci/workspace/chipset_pipeline_release/opensource/component_code/vendor/huawei/extra/build/build_script/kirin_kernel_release/kernel/block/hisi-blk-dump.c:372:29
	add	x0, x21, x19
	.loc	2 372 46                // /mnt/disk/jenkins/ci/workspace/chipset_pipeline_release/opensource/component_code/vendor/huawei/extra/build/build_script/kirin_kernel_release/kernel/block/hisi-blk-dump.c:372:46
	sub	x1, x20, x19
	.loc	2 372 12                // /mnt/disk/jenkins/ci/workspace/chipset_pipeline_release/opensource/component_code/vendor/huawei/extra/build/build_script/kirin_kernel_release/kernel/block/hisi-blk-dump.c:372:12
	add	x2, x2, :lo12:.L.str.27
	bl	snprintf
	.loc	2 372 9                 // /mnt/disk/jenkins/ci/workspace/chipset_pipeline_release/opensource/component_code/vendor/huawei/extra/build/build_script/kirin_kernel_release/kernel/block/hisi-blk-dump.c:372:9
	add	x19, x19, w0, sxtw
.Ltmp207:
	//DEBUG_VALUE: hisi_blk_dump_lld_status:print_offset <- $x19
	//DEBUG_VALUE: hisi_blk_dump_lld_status:offset <- $x19
	.loc	2 373 6 is_stmt 1       // /mnt/disk/jenkins/ci/workspace/chipset_pipeline_release/opensource/component_code/vendor/huawei/extra/build/build_script/kirin_kernel_release/kernel/block/hisi-blk-dump.c:373:6
	tbz	w23, #0, .LBB5_28
.Ltmp208:
// %bb.27:
	//DEBUG_VALUE: hisi_blk_dump_lld_status:offset <- $x19
	//DEBUG_VALUE: hisi_blk_dump_lld_status:print_offset <- $x19
	//DEBUG_VALUE: hisi_blk_dump_lld_status:lld <- $x22
	//DEBUG_VALUE: hisi_blk_dump_lld_status:out_buf <- $x21
	//DEBUG_VALUE: hisi_blk_dump_lld_status:length <- $x20
	.loc	2 374 3                 // /mnt/disk/jenkins/ci/workspace/chipset_pipeline_release/opensource/component_code/vendor/huawei/extra/build/build_script/kirin_kernel_release/kernel/block/hisi-blk-dump.c:374:3
	adrp	x0, .L.str.11
	add	x1, x21, x26
	add	x0, x0, :lo12:.L.str.11
	bl	printk
.Ltmp209:
	.loc	2 0 0 is_stmt 0         // /mnt/disk/jenkins/ci/workspace/chipset_pipeline_release/opensource/component_code/vendor/huawei/extra/build/build_script/kirin_kernel_release/kernel/block/hisi-blk-dump.c:0:0
	mov	x26, x19
.Ltmp210:
.LBB5_28:
	//DEBUG_VALUE: hisi_blk_dump_lld_status:offset <- $x19
	//DEBUG_VALUE: hisi_blk_dump_lld_status:print_offset <- $x19
	//DEBUG_VALUE: hisi_blk_dump_lld_status:lld <- $x22
	//DEBUG_VALUE: hisi_blk_dump_lld_status:out_buf <- $x21
	//DEBUG_VALUE: hisi_blk_dump_lld_status:length <- $x20
	//DEBUG_VALUE: hisi_blk_dump_lld_status:print_offset <- $x26
	.loc	2 377 6 is_stmt 1       // /mnt/disk/jenkins/ci/workspace/chipset_pipeline_release/opensource/component_code/vendor/huawei/extra/build/build_script/kirin_kernel_release/kernel/block/hisi-blk-dump.c:377:6
	cmp	x19, x20
	b.hs	.LBB5_33
.Ltmp211:
// %bb.29:
	//DEBUG_VALUE: hisi_blk_dump_lld_status:print_offset <- $x26
	//DEBUG_VALUE: hisi_blk_dump_lld_status:offset <- $x19
	//DEBUG_VALUE: hisi_blk_dump_lld_status:lld <- $x22
	//DEBUG_VALUE: hisi_blk_dump_lld_status:out_buf <- $x21
	//DEBUG_VALUE: hisi_blk_dump_lld_status:length <- $x20
	.loc	2 379 11                // /mnt/disk/jenkins/ci/workspace/chipset_pipeline_release/opensource/component_code/vendor/huawei/extra/build/build_script/kirin_kernel_release/kernel/block/hisi-blk-dump.c:379:11
	ldr	x8, [x22, #24]
.Ltmp212:
	.loc	2 379 6 is_stmt 0       // /mnt/disk/jenkins/ci/workspace/chipset_pipeline_release/opensource/component_code/vendor/huawei/extra/build/build_script/kirin_kernel_release/kernel/block/hisi-blk-dump.c:379:6
	adrp	x9, .L.str.28
	adrp	x10, .L.str.29
	add	x9, x9, :lo12:.L.str.28
	add	x10, x10, :lo12:.L.str.29
	tst	x8, #0x20
.Ltmp213:
	.loc	2 0 0                   // /mnt/disk/jenkins/ci/workspace/chipset_pipeline_release/opensource/component_code/vendor/huawei/extra/build/build_script/kirin_kernel_release/kernel/block/hisi-blk-dump.c:0:0
	add	x0, x21, x19
	sub	x1, x20, x19
.Ltmp214:
	.loc	2 379 6                 // /mnt/disk/jenkins/ci/workspace/chipset_pipeline_release/opensource/component_code/vendor/huawei/extra/build/build_script/kirin_kernel_release/kernel/block/hisi-blk-dump.c:379:6
	csel	x2, x10, x9, eq
.Ltmp215:
	.loc	2 0 0                   // /mnt/disk/jenkins/ci/workspace/chipset_pipeline_release/opensource/component_code/vendor/huawei/extra/build/build_script/kirin_kernel_release/kernel/block/hisi-blk-dump.c:0:0
	bl	snprintf
	add	x19, x19, w0, sxtw
.Ltmp216:
	//DEBUG_VALUE: hisi_blk_dump_lld_status:offset <- $x19
	.loc	2 385 6 is_stmt 1       // /mnt/disk/jenkins/ci/workspace/chipset_pipeline_release/opensource/component_code/vendor/huawei/extra/build/build_script/kirin_kernel_release/kernel/block/hisi-blk-dump.c:385:6
	tbz	w23, #0, .LBB5_31
.Ltmp217:
// %bb.30:
	//DEBUG_VALUE: hisi_blk_dump_lld_status:print_offset <- $x26
	//DEBUG_VALUE: hisi_blk_dump_lld_status:offset <- $x19
	//DEBUG_VALUE: hisi_blk_dump_lld_status:lld <- $x22
	//DEBUG_VALUE: hisi_blk_dump_lld_status:out_buf <- $x21
	//DEBUG_VALUE: hisi_blk_dump_lld_status:length <- $x20
	.loc	2 386 3                 // /mnt/disk/jenkins/ci/workspace/chipset_pipeline_release/opensource/component_code/vendor/huawei/extra/build/build_script/kirin_kernel_release/kernel/block/hisi-blk-dump.c:386:3
	adrp	x0, .L.str.11
	add	x1, x21, x26
	add	x0, x0, :lo12:.L.str.11
	bl	printk
.Ltmp218:
.LBB5_31:
	//DEBUG_VALUE: hisi_blk_dump_lld_status:print_offset <- $x26
	//DEBUG_VALUE: hisi_blk_dump_lld_status:offset <- $x19
	//DEBUG_VALUE: hisi_blk_dump_lld_status:lld <- $x22
	//DEBUG_VALUE: hisi_blk_dump_lld_status:out_buf <- $x21
	//DEBUG_VALUE: hisi_blk_dump_lld_status:length <- $x20
	.loc	2 387 6                 // /mnt/disk/jenkins/ci/workspace/chipset_pipeline_release/opensource/component_code/vendor/huawei/extra/build/build_script/kirin_kernel_release/kernel/block/hisi-blk-dump.c:387:6
	cmp	x19, x20
	b.hs	.LBB5_33
.Ltmp219:
// %bb.32:
	//DEBUG_VALUE: hisi_blk_dump_lld_status:print_offset <- $x26
	//DEBUG_VALUE: hisi_blk_dump_lld_status:offset <- $x19
	//DEBUG_VALUE: hisi_blk_dump_lld_status:lld <- $x22
	//DEBUG_VALUE: hisi_blk_dump_lld_status:out_buf <- $x21
	//DEBUG_VALUE: hisi_blk_dump_lld_status:length <- $x20
	.loc	2 392 8                 // /mnt/disk/jenkins/ci/workspace/chipset_pipeline_release/opensource/component_code/vendor/huawei/extra/build/build_script/kirin_kernel_release/kernel/block/hisi-blk-dump.c:392:8
	ldr	x8, [x22, #24]
	.loc	2 390 12                // /mnt/disk/jenkins/ci/workspace/chipset_pipeline_release/opensource/component_code/vendor/huawei/extra/build/build_script/kirin_kernel_release/kernel/block/hisi-blk-dump.c:390:12
	adrp	x2, .L.str.30
	.loc	2 390 29 is_stmt 0      // /mnt/disk/jenkins/ci/workspace/chipset_pipeline_release/opensource/component_code/vendor/huawei/extra/build/build_script/kirin_kernel_release/kernel/block/hisi-blk-dump.c:390:29
	add	x0, x21, x19
	.loc	2 390 46                // /mnt/disk/jenkins/ci/workspace/chipset_pipeline_release/opensource/component_code/vendor/huawei/extra/build/build_script/kirin_kernel_release/kernel/block/hisi-blk-dump.c:390:46
	sub	x1, x20, x19
	.loc	2 392 3 is_stmt 1       // /mnt/disk/jenkins/ci/workspace/chipset_pipeline_release/opensource/component_code/vendor/huawei/extra/build/build_script/kirin_kernel_release/kernel/block/hisi-blk-dump.c:392:3
	tst	x8, #0x80
	csel	x3, x25, x24, eq
	.loc	2 390 12                // /mnt/disk/jenkins/ci/workspace/chipset_pipeline_release/opensource/component_code/vendor/huawei/extra/build/build_script/kirin_kernel_release/kernel/block/hisi-blk-dump.c:390:12
	add	x2, x2, :lo12:.L.str.30
	bl	snprintf
	.loc	2 390 9 is_stmt 0       // /mnt/disk/jenkins/ci/workspace/chipset_pipeline_release/opensource/component_code/vendor/huawei/extra/build/build_script/kirin_kernel_release/kernel/block/hisi-blk-dump.c:390:9
	add	x19, x19, w0, sxtw
.Ltmp220:
	//DEBUG_VALUE: hisi_blk_dump_lld_status:offset <- $x19
.LBB5_33:
	//DEBUG_VALUE: hisi_blk_dump_lld_status:print_offset <- $x26
	//DEBUG_VALUE: hisi_blk_dump_lld_status:offset <- $x19
	//DEBUG_VALUE: hisi_blk_dump_lld_status:lld <- $x22
	//DEBUG_VALUE: hisi_blk_dump_lld_status:out_buf <- $x21
	//DEBUG_VALUE: hisi_blk_dump_lld_status:length <- $x20
	.loc	2 397 2 is_stmt 1       // /mnt/disk/jenkins/ci/workspace/chipset_pipeline_release/opensource/component_code/vendor/huawei/extra/build/build_script/kirin_kernel_release/kernel/block/hisi-blk-dump.c:397:2
	mov	x0, x19
.Ltmp221:
	//DEBUG_VALUE: hisi_blk_dump_lld_status:offset <- undef
	ldp	x29, x30, [sp, #64]     // 16-byte Folded Reload
	ldp	x20, x19, [sp, #48]     // 16-byte Folded Reload
.Ltmp222:
	ldp	x22, x21, [sp, #32]     // 16-byte Folded Reload
.Ltmp223:
	ldp	x24, x23, [sp, #16]     // 16-byte Folded Reload
	ldp	x26, x25, [sp], #80     // 16-byte Folded Reload
.Ltmp224:
	ret
.Ltmp225:
.Lfunc_end5:
	.size	hisi_blk_dump_lld_status, .Lfunc_end5-hisi_blk_dump_lld_status
	.cfi_endproc
                                        // -- End function
	.section	.text.hisi_blk_dump_panic_notify,"ax",@progbits
	.hidden	hisi_blk_dump_panic_notify // -- Begin function hisi_blk_dump_panic_notify
	.globl	hisi_blk_dump_panic_notify
	.p2align	2
	.type	hisi_blk_dump_panic_notify,@function
hisi_blk_dump_panic_notify:             // @hisi_blk_dump_panic_notify
.Lfunc_begin6:
	.loc	2 445 0                 // /mnt/disk/jenkins/ci/workspace/chipset_pipeline_release/opensource/component_code/vendor/huawei/extra/build/build_script/kirin_kernel_release/kernel/block/hisi-blk-dump.c:445:0
	.cfi_startproc
// %bb.0:
	str	x28, [sp, #-96]!        // 8-byte Folded Spill
	stp	x26, x25, [sp, #16]     // 16-byte Folded Spill
	stp	x24, x23, [sp, #32]     // 16-byte Folded Spill
	stp	x22, x21, [sp, #48]     // 16-byte Folded Spill
	stp	x20, x19, [sp, #64]     // 16-byte Folded Spill
	stp	x29, x30, [sp, #80]     // 16-byte Folded Spill
	add	x29, sp, #80            // =80
	sub	sp, sp, #528            // =528
	.cfi_def_cfa w29, 16
	.cfi_offset w30, -8
	.cfi_offset w29, -16
	.cfi_offset w19, -24
	.cfi_offset w20, -32
	.cfi_offset w21, -40
	.cfi_offset w22, -48
	.cfi_offset w23, -56
	.cfi_offset w24, -64
	.cfi_offset w25, -72
	.cfi_offset w26, -80
	.cfi_offset w28, -96
	//DEBUG_VALUE: hisi_blk_dump_panic_notify:nb <- $x0
	//DEBUG_VALUE: hisi_blk_dump_panic_notify:event <- $x1
	//DEBUG_VALUE: hisi_blk_dump_panic_notify:buf <- $x2
	adrp	x8, __stack_chk_guard
	ldr	x8, [x8, :lo12:__stack_chk_guard]
	stur	x8, [x29, #-88]
.Ltmp226:
	.loc	2 446 16 prologue_end   // /mnt/disk/jenkins/ci/workspace/chipset_pipeline_release/opensource/component_code/vendor/huawei/extra/build/build_script/kirin_kernel_release/kernel/block/hisi-blk-dump.c:446:16
	bl	ktime_get
.Ltmp227:
	mov	x2, x0
.Ltmp228:
	//DEBUG_VALUE: hisi_blk_dump_panic_notify:now <- $x2
	.loc	2 447 2                 // /mnt/disk/jenkins/ci/workspace/chipset_pipeline_release/opensource/component_code/vendor/huawei/extra/build/build_script/kirin_kernel_release/kernel/block/hisi-blk-dump.c:447:2
	adrp	x0, .L.str.31
	adrp	x1, .L__func__.hisi_blk_dump_panic_notify
	add	x0, x0, :lo12:.L.str.31
	add	x1, x1, :lo12:.L__func__.hisi_blk_dump_panic_notify
	bl	printk
.Ltmp229:
	.loc	2 0 0 is_stmt 0         // /mnt/disk/jenkins/ci/workspace/chipset_pipeline_release/opensource/component_code/vendor/huawei/extra/build/build_script/kirin_kernel_release/kernel/block/hisi-blk-dump.c:0:0
	adrp	x23, dump_list
	add	x23, x23, :lo12:dump_list
.Ltmp230:
	//DEBUG_VALUE: hisi_blk_dump:hisi_queue <- [DW_OP_deref, DW_OP_constu 160, DW_OP_minus, DW_OP_stack_value] $x23
	ldr	x24, [x23]
	.loc	2 435 2 is_stmt 1       // /mnt/disk/jenkins/ci/workspace/chipset_pipeline_release/opensource/component_code/vendor/huawei/extra/build/build_script/kirin_kernel_release/kernel/block/hisi-blk-dump.c:435:2
	cmp	x24, x23
	b.eq	.LBB6_9
.Ltmp231:
// %bb.1:
	//DEBUG_VALUE: hisi_blk_dump:hisi_queue <- [DW_OP_deref, DW_OP_constu 160, DW_OP_minus, DW_OP_stack_value] $x23
	.loc	2 0 2 is_stmt 0         // /mnt/disk/jenkins/ci/workspace/chipset_pipeline_release/opensource/component_code/vendor/huawei/extra/build/build_script/kirin_kernel_release/kernel/block/hisi-blk-dump.c:0:2
	adrp	x25, .L.str.18
	adrp	x26, .L.str.19
	adrp	x19, .L.str.17
	adrp	x20, .L.str.33
	add	x25, x25, :lo12:.L.str.18
	add	x26, x26, :lo12:.L.str.19
	add	x19, x19, :lo12:.L.str.17
	add	x20, x20, :lo12:.L.str.33
.Ltmp232:
.LBB6_2:                                // =>This Inner Loop Header: Depth=1
	//DEBUG_VALUE: hisi_blk_dump:hisi_queue <- [DW_OP_deref, DW_OP_constu 160, DW_OP_minus, DW_OP_stack_value] $x23
	//DEBUG_VALUE: hisi_blk_dump:hisi_queue <- [DW_OP_constu 160, DW_OP_minus, DW_OP_stack_value] $x24
	//DEBUG_VALUE: __mptr <- [DW_OP_constu 160, DW_OP_minus, DW_OP_stack_value] $x24
	.loc	2 437 31 is_stmt 1      // /mnt/disk/jenkins/ci/workspace/chipset_pipeline_release/opensource/component_code/vendor/huawei/extra/build/build_script/kirin_kernel_release/kernel/block/hisi-blk-dump.c:437:31
	sub	x21, x24, #1696         // =1696
.Ltmp233:
	//DEBUG_VALUE: hisi_blk_dump_queue:q <- $x21
	//DEBUG_VALUE: hisi_blk_dump:q <- $x21
	//DEBUG_VALUE: hisi_blk_dump_queue_status:q <- $x21
	.loc	2 402 28                // /mnt/disk/jenkins/ci/workspace/chipset_pipeline_release/opensource/component_code/vendor/huawei/extra/build/build_script/kirin_kernel_release/kernel/block/hisi-blk-dump.c:402:28
	mov	x0, x21
	bl	hisi_blk_get_lld
.Ltmp234:
	.loc	2 404 11                // /mnt/disk/jenkins/ci/workspace/chipset_pipeline_release/opensource/component_code/vendor/huawei/extra/build/build_script/kirin_kernel_release/kernel/block/hisi-blk-dump.c:404:11
	ldr	x8, [x0, #40]
.Ltmp235:
	.loc	2 404 6 is_stmt 0       // /mnt/disk/jenkins/ci/workspace/chipset_pipeline_release/opensource/component_code/vendor/huawei/extra/build/build_script/kirin_kernel_release/kernel/block/hisi-blk-dump.c:404:6
	cbz	x8, .LBB6_4
.Ltmp236:
// %bb.3:                               //   in Loop: Header=BB6_2 Depth=1
	//DEBUG_VALUE: hisi_blk_dump:q <- $x21
	//DEBUG_VALUE: hisi_blk_dump_queue:q <- $x21
	//DEBUG_VALUE: hisi_blk_dump:hisi_queue <- [DW_OP_constu 160, DW_OP_minus, DW_OP_stack_value] $x24
	.loc	2 406 3 is_stmt 1       // /mnt/disk/jenkins/ci/workspace/chipset_pipeline_release/opensource/component_code/vendor/huawei/extra/build/build_script/kirin_kernel_release/kernel/block/hisi-blk-dump.c:406:3
	add	x1, sp, #8              // =8
	orr	w2, wzr, #0x200
	orr	w3, wzr, #0x1
.Ltmp237:
	.loc	2 0 0 is_stmt 0         // /mnt/disk/jenkins/ci/workspace/chipset_pipeline_release/opensource/component_code/vendor/huawei/extra/build/build_script/kirin_kernel_release/kernel/block/hisi-blk-dump.c:0:0
	mov	x22, x0
.Ltmp238:
	//DEBUG_VALUE: hisi_blk_dump_queue:lld <- $x22
	.loc	2 406 3                 // /mnt/disk/jenkins/ci/workspace/chipset_pipeline_release/opensource/component_code/vendor/huawei/extra/build/build_script/kirin_kernel_release/kernel/block/hisi-blk-dump.c:406:3
	bl	hisi_blk_dump_lld_status
	.loc	2 412 8 is_stmt 1       // /mnt/disk/jenkins/ci/workspace/chipset_pipeline_release/opensource/component_code/vendor/huawei/extra/build/build_script/kirin_kernel_release/kernel/block/hisi-blk-dump.c:412:8
	ldr	x8, [x22, #40]
	.loc	2 412 3 is_stmt 0       // /mnt/disk/jenkins/ci/workspace/chipset_pipeline_release/opensource/component_code/vendor/huawei/extra/build/build_script/kirin_kernel_release/kernel/block/hisi-blk-dump.c:412:3
	orr	w1, wzr, #0x1
	mov	x0, x21
	blr	x8
	.loc	2 413 16 is_stmt 1      // /mnt/disk/jenkins/ci/workspace/chipset_pipeline_release/opensource/component_code/vendor/huawei/extra/build/build_script/kirin_kernel_release/kernel/block/hisi-blk-dump.c:413:16
	str	xzr, [x22, #40]
.Ltmp239:
.LBB6_4:                                //   in Loop: Header=BB6_2 Depth=1
	//DEBUG_VALUE: hisi_blk_dump:q <- $x21
	//DEBUG_VALUE: hisi_blk_dump_queue:q <- $x21
	//DEBUG_VALUE: hisi_blk_dump:hisi_queue <- [DW_OP_constu 160, DW_OP_minus, DW_OP_stack_value] $x24
	//DEBUG_VALUE: hisi_blk_dump_queue_status:scenario <- 1
	.loc	2 246 20                // /mnt/disk/jenkins/ci/workspace/chipset_pipeline_release/opensource/component_code/vendor/huawei/extra/build/build_script/kirin_kernel_release/kernel/block/hisi-blk-dump.c:246:20
	ldur	x8, [x24, #-160]
.Ltmp240:
	.loc	2 246 6 is_stmt 0       // /mnt/disk/jenkins/ci/workspace/chipset_pipeline_release/opensource/component_code/vendor/huawei/extra/build/build_script/kirin_kernel_release/kernel/block/hisi-blk-dump.c:246:6
	cbz	x8, .LBB6_8
.Ltmp241:
// %bb.5:                               //   in Loop: Header=BB6_2 Depth=1
	//DEBUG_VALUE: hisi_blk_dump:q <- $x21
	//DEBUG_VALUE: hisi_blk_dump_queue:q <- $x21
	//DEBUG_VALUE: hisi_blk_dump:hisi_queue <- [DW_OP_constu 160, DW_OP_minus, DW_OP_stack_value] $x24
	.loc	2 258 3 is_stmt 1       // /mnt/disk/jenkins/ci/workspace/chipset_pipeline_release/opensource/component_code/vendor/huawei/extra/build/build_script/kirin_kernel_release/kernel/block/hisi-blk-dump.c:258:3
	ldurb	w9, [x24, #-152]
.Ltmp242:
	.loc	130 186 2               // /mnt/disk/jenkins/ci/workspace/chipset_pipeline_release/opensource/component_code/vendor/huawei/extra/build/build_script/kirin_kernel_release/kernel/include/linux/compiler.h:186:2
	ldr	w4, [x8, #992]
.Ltmp243:
	//DEBUG_VALUE: __read_once_size:p <- [DW_OP_plus_uconst 996, DW_OP_stack_value] $x8
	//DEBUG_VALUE: __read_once_size:size <- 4
	//DEBUG_VALUE: __read_once_size:res <- undef
	.loc	130 186 2 is_stmt 0     // /mnt/disk/jenkins/ci/workspace/chipset_pipeline_release/opensource/component_code/vendor/huawei/extra/build/build_script/kirin_kernel_release/kernel/include/linux/compiler.h:186:2
	ldr	w5, [x8, #996]
.Ltmp244:
	.loc	2 258 3 is_stmt 1       // /mnt/disk/jenkins/ci/workspace/chipset_pipeline_release/opensource/component_code/vendor/huawei/extra/build/build_script/kirin_kernel_release/kernel/block/hisi-blk-dump.c:258:3
	add	x2, x8, #12             // =12
	cmp	w9, #0                  // =0
	csel	x3, x26, x25, eq
.Ltmp245:
	//DEBUG_VALUE: __read_once_size:p <- [DW_OP_plus_uconst 992, DW_OP_stack_value] undef
	//DEBUG_VALUE: __read_once_size:size <- 4
	//DEBUG_VALUE: __read_once_size:res <- undef
	//DEBUG_VALUE: hisi_blk_dump_queue_status:prefix <- $x20
	mov	x0, x19
	mov	x1, x20
	bl	printk
.Ltmp246:
	.loc	2 269 4                 // /mnt/disk/jenkins/ci/workspace/chipset_pipeline_release/opensource/component_code/vendor/huawei/extra/build/build_script/kirin_kernel_release/kernel/block/hisi-blk-dump.c:269:4
	add	x1, sp, #8              // =8
	orr	w2, wzr, #0x200
	orr	w3, wzr, #0x1
	mov	x0, x21
	bl	hisi_blk_dump_queue_status2
.Ltmp247:
	.loc	2 272 10                // /mnt/disk/jenkins/ci/workspace/chipset_pipeline_release/opensource/component_code/vendor/huawei/extra/build/build_script/kirin_kernel_release/kernel/block/hisi-blk-dump.c:272:10
	ldr	x8, [x24, #104]
	.loc	2 272 25 is_stmt 0      // /mnt/disk/jenkins/ci/workspace/chipset_pipeline_release/opensource/component_code/vendor/huawei/extra/build/build_script/kirin_kernel_release/kernel/block/hisi-blk-dump.c:272:25
	cbz	x8, .LBB6_8
.Ltmp248:
// %bb.6:                               //   in Loop: Header=BB6_2 Depth=1
	//DEBUG_VALUE: hisi_blk_dump_queue_status:prefix <- $x20
	//DEBUG_VALUE: hisi_blk_dump:q <- $x21
	//DEBUG_VALUE: hisi_blk_dump_queue:q <- $x21
	//DEBUG_VALUE: hisi_blk_dump:hisi_queue <- [DW_OP_constu 160, DW_OP_minus, DW_OP_stack_value] $x24
	.loc	2 272 47                // /mnt/disk/jenkins/ci/workspace/chipset_pipeline_release/opensource/component_code/vendor/huawei/extra/build/build_script/kirin_kernel_release/kernel/block/hisi-blk-dump.c:272:47
	ldr	x8, [x8, #184]
.Ltmp249:
	.loc	2 272 7                 // /mnt/disk/jenkins/ci/workspace/chipset_pipeline_release/opensource/component_code/vendor/huawei/extra/build/build_script/kirin_kernel_release/kernel/block/hisi-blk-dump.c:272:7
	cbz	x8, .LBB6_8
.Ltmp250:
// %bb.7:                               //   in Loop: Header=BB6_2 Depth=1
	//DEBUG_VALUE: hisi_blk_dump_queue_status:prefix <- $x20
	//DEBUG_VALUE: hisi_blk_dump:q <- $x21
	//DEBUG_VALUE: hisi_blk_dump_queue:q <- $x21
	//DEBUG_VALUE: hisi_blk_dump:hisi_queue <- [DW_OP_constu 160, DW_OP_minus, DW_OP_stack_value] $x24
	.loc	2 273 4 is_stmt 1       // /mnt/disk/jenkins/ci/workspace/chipset_pipeline_release/opensource/component_code/vendor/huawei/extra/build/build_script/kirin_kernel_release/kernel/block/hisi-blk-dump.c:273:4
	orr	w2, wzr, #0x1
	mov	x0, x21
	mov	x1, x20
	blr	x8
.Ltmp251:
.LBB6_8:                                //   in Loop: Header=BB6_2 Depth=1
	//DEBUG_VALUE: hisi_blk_dump:q <- $x21
	//DEBUG_VALUE: hisi_blk_dump:hisi_queue <- [DW_OP_constu 160, DW_OP_minus, DW_OP_stack_value] $x24
	//DEBUG_VALUE: hisi_blk_dump:hisi_queue <- [DW_OP_deref, DW_OP_constu 160, DW_OP_minus, DW_OP_stack_value] $x24
	//DEBUG_VALUE: __mptr <- [DW_OP_deref] $x24
	.loc	2 0 0 is_stmt 0         // /mnt/disk/jenkins/ci/workspace/chipset_pipeline_release/opensource/component_code/vendor/huawei/extra/build/build_script/kirin_kernel_release/kernel/block/hisi-blk-dump.c:0:0
	ldr	x24, [x24]
.Ltmp252:
	.loc	2 435 2 is_stmt 1       // /mnt/disk/jenkins/ci/workspace/chipset_pipeline_release/opensource/component_code/vendor/huawei/extra/build/build_script/kirin_kernel_release/kernel/block/hisi-blk-dump.c:435:2
	cmp	x24, x23
	b.ne	.LBB6_2
.Ltmp253:
.LBB6_9:
	.loc	2 449 2                 // /mnt/disk/jenkins/ci/workspace/chipset_pipeline_release/opensource/component_code/vendor/huawei/extra/build/build_script/kirin_kernel_release/kernel/block/hisi-blk-dump.c:449:2
	adrp	x0, .L.str.32
	adrp	x1, .L__func__.hisi_blk_dump_panic_notify
	add	x0, x0, :lo12:.L.str.32
	add	x1, x1, :lo12:.L__func__.hisi_blk_dump_panic_notify
	bl	printk
	adrp	x9, __stack_chk_guard
	ldur	x8, [x29, #-88]
	ldr	x9, [x9, :lo12:__stack_chk_guard]
	cmp	x9, x8
	b.ne	.LBB6_11
// %bb.10:
	.loc	2 450 2                 // /mnt/disk/jenkins/ci/workspace/chipset_pipeline_release/opensource/component_code/vendor/huawei/extra/build/build_script/kirin_kernel_release/kernel/block/hisi-blk-dump.c:450:2
	mov	w0, wzr
	add	sp, sp, #528            // =528
	ldp	x29, x30, [sp, #80]     // 16-byte Folded Reload
	ldp	x20, x19, [sp, #64]     // 16-byte Folded Reload
	ldp	x22, x21, [sp, #48]     // 16-byte Folded Reload
	ldp	x24, x23, [sp, #32]     // 16-byte Folded Reload
	ldp	x26, x25, [sp, #16]     // 16-byte Folded Reload
	ldr	x28, [sp], #96          // 8-byte Folded Reload
	ret
.Ltmp254:
.LBB6_11:
	.loc	2 0 2 is_stmt 0         // /mnt/disk/jenkins/ci/workspace/chipset_pipeline_release/opensource/component_code/vendor/huawei/extra/build/build_script/kirin_kernel_release/kernel/block/hisi-blk-dump.c:0:2
	bl	__stack_chk_fail
.Lfunc_end6:
	.size	hisi_blk_dump_panic_notify, .Lfunc_end6-hisi_blk_dump_panic_notify
	.cfi_endproc
                                        // -- End function
	.section	.text.hisi_blk_dump_register_queue,"ax",@progbits
	.hidden	hisi_blk_dump_register_queue // -- Begin function hisi_blk_dump_register_queue
	.globl	hisi_blk_dump_register_queue
	.p2align	2
	.type	hisi_blk_dump_register_queue,@function
hisi_blk_dump_register_queue:           // @hisi_blk_dump_register_queue
.Lfunc_begin7:
	.loc	2 457 0 is_stmt 1       // /mnt/disk/jenkins/ci/workspace/chipset_pipeline_release/opensource/component_code/vendor/huawei/extra/build/build_script/kirin_kernel_release/kernel/block/hisi-blk-dump.c:457:0
	.cfi_startproc
// %bb.0:
	str	x21, [sp, #-48]!        // 8-byte Folded Spill
	stp	x20, x19, [sp, #16]     // 16-byte Folded Spill
	stp	x29, x30, [sp, #32]     // 16-byte Folded Spill
	add	x29, sp, #32            // =32
	.cfi_def_cfa w29, 16
	.cfi_offset w30, -8
	.cfi_offset w29, -16
	.cfi_offset w19, -24
	.cfi_offset w20, -32
	.cfi_offset w21, -48
	//DEBUG_VALUE: hisi_blk_dump_register_queue:q <- $x0
	mov	x19, x0
.Ltmp255:
	//DEBUG_VALUE: hisi_blk_dump_register_queue:q <- $x19
	.loc	2 458 32 prologue_end   // /mnt/disk/jenkins/ci/workspace/chipset_pipeline_release/opensource/component_code/vendor/huawei/extra/build/build_script/kirin_kernel_release/kernel/block/hisi-blk-dump.c:458:32
	bl	hisi_blk_get_lld
.Ltmp256:
	//DEBUG_VALUE: hisi_blk_dump_register_queue:blk_lld <- $x0
	.loc	2 459 6                 // /mnt/disk/jenkins/ci/workspace/chipset_pipeline_release/opensource/component_code/vendor/huawei/extra/build/build_script/kirin_kernel_release/kernel/block/hisi-blk-dump.c:459:6
	ldrb	w8, [x0, #24]
	tbz	w8, #0, .LBB7_3
.Ltmp257:
// %bb.1:
	//DEBUG_VALUE: hisi_blk_dump_register_queue:blk_lld <- $x0
	//DEBUG_VALUE: hisi_blk_dump_register_queue:q <- $x19
	.loc	130 186 2               // /mnt/disk/jenkins/ci/workspace/chipset_pipeline_release/opensource/component_code/vendor/huawei/extra/build/build_script/kirin_kernel_release/kernel/include/linux/compiler.h:186:2
	ldr	x8, [x19, #1696]
.Ltmp258:
	.loc	2 460 34                // /mnt/disk/jenkins/ci/workspace/chipset_pipeline_release/opensource/component_code/vendor/huawei/extra/build/build_script/kirin_kernel_release/kernel/block/hisi-blk-dump.c:460:34
	add	x21, x19, #1696         // =1696
.Ltmp259:
	//DEBUG_VALUE: __read_once_size:p <- $x21
	//DEBUG_VALUE: __read_once_size:size <- 8
	//DEBUG_VALUE: __read_once_size:res <- undef
	//DEBUG_VALUE: list_empty:head <- $x21
	//DEBUG_VALUE: list_add_tail:new <- $x21
	//DEBUG_VALUE: __list_add:new <- $x21
	.loc	2 460 7 is_stmt 0       // /mnt/disk/jenkins/ci/workspace/chipset_pipeline_release/opensource/component_code/vendor/huawei/extra/build/build_script/kirin_kernel_release/kernel/block/hisi-blk-dump.c:460:7
	cmp	x21, x8
	b.ne	.LBB7_3
.Ltmp260:
// %bb.2:
	//DEBUG_VALUE: __list_add:new <- $x21
	//DEBUG_VALUE: list_add_tail:new <- $x21
	//DEBUG_VALUE: hisi_blk_dump_register_queue:blk_lld <- $x0
	//DEBUG_VALUE: hisi_blk_dump_register_queue:q <- $x19
	.file	131 "/mnt/disk/jenkins/ci/workspace/chipset_pipeline_release/opensource/component_code/vendor/huawei/extra/build/build_script/kirin_kernel_release/kernel/include/linux/spinlock.h"
	.loc	131 317 2 is_stmt 1     // /mnt/disk/jenkins/ci/workspace/chipset_pipeline_release/opensource/component_code/vendor/huawei/extra/build/build_script/kirin_kernel_release/kernel/include/linux/spinlock.h:317:2
	adrp	x20, dump_list_lock
	add	x20, x20, :lo12:dump_list_lock
.Ltmp261:
	//DEBUG_VALUE: spin_lock:lock <- $x20
	mov	x0, x20
.Ltmp262:
	bl	_raw_spin_lock
.Ltmp263:
	.file	132 "/mnt/disk/jenkins/ci/workspace/chipset_pipeline_release/opensource/component_code/vendor/huawei/extra/build/build_script/kirin_kernel_release/kernel/include/linux/list.h"
	.loc	132 93 24               // /mnt/disk/jenkins/ci/workspace/chipset_pipeline_release/opensource/component_code/vendor/huawei/extra/build/build_script/kirin_kernel_release/kernel/include/linux/list.h:93:24
	adrp	x8, dump_list
	add	x8, x8, :lo12:dump_list
.Ltmp264:
	//DEBUG_VALUE: list_add_tail:head <- $x8
	ldr	x9, [x8, #8]
.Ltmp265:
	//DEBUG_VALUE: __write_once_size:res <- undef
	//DEBUG_VALUE: __list_add:prev <- $x9
	//DEBUG_VALUE: __list_add:next <- $x8
	.loc	131 357 2               // /mnt/disk/jenkins/ci/workspace/chipset_pipeline_release/opensource/component_code/vendor/huawei/extra/build/build_script/kirin_kernel_release/kernel/include/linux/spinlock.h:357:2
	mov	x0, x20
.Ltmp266:
	.loc	132 63 13               // /mnt/disk/jenkins/ci/workspace/chipset_pipeline_release/opensource/component_code/vendor/huawei/extra/build/build_script/kirin_kernel_release/kernel/include/linux/list.h:63:13
	str	x21, [x8, #8]
	.loc	132 64 12               // /mnt/disk/jenkins/ci/workspace/chipset_pipeline_release/opensource/component_code/vendor/huawei/extra/build/build_script/kirin_kernel_release/kernel/include/linux/list.h:64:12
	str	x8, [x19, #1696]
	.loc	132 65 12               // /mnt/disk/jenkins/ci/workspace/chipset_pipeline_release/opensource/component_code/vendor/huawei/extra/build/build_script/kirin_kernel_release/kernel/include/linux/list.h:65:12
	str	x9, [x19, #1704]
.Ltmp267:
	//DEBUG_VALUE: __write_once_size:p <- $x9
	//DEBUG_VALUE: __write_once_size:size <- 8
	.loc	130 213 31              // /mnt/disk/jenkins/ci/workspace/chipset_pipeline_release/opensource/component_code/vendor/huawei/extra/build/build_script/kirin_kernel_release/kernel/include/linux/compiler.h:213:31
	str	x21, [x9]
.Ltmp268:
	//DEBUG_VALUE: spin_unlock:lock <- $x20
	.loc	131 357 2               // /mnt/disk/jenkins/ci/workspace/chipset_pipeline_release/opensource/component_code/vendor/huawei/extra/build/build_script/kirin_kernel_release/kernel/include/linux/spinlock.h:357:2
	bl	_raw_spin_unlock
.Ltmp269:
.LBB7_3:
	//DEBUG_VALUE: hisi_blk_dump_register_queue:q <- $x19
	.loc	2 466 1                 // /mnt/disk/jenkins/ci/workspace/chipset_pipeline_release/opensource/component_code/vendor/huawei/extra/build/build_script/kirin_kernel_release/kernel/block/hisi-blk-dump.c:466:1
	ldp	x29, x30, [sp, #32]     // 16-byte Folded Reload
	ldp	x20, x19, [sp, #16]     // 16-byte Folded Reload
.Ltmp270:
	ldr	x21, [sp], #48          // 8-byte Folded Reload
	ret
.Ltmp271:
.Lfunc_end7:
	.size	hisi_blk_dump_register_queue, .Lfunc_end7-hisi_blk_dump_register_queue
	.cfi_endproc
                                        // -- End function
	.section	.text.hisi_blk_dump_unregister_queue,"ax",@progbits
	.hidden	hisi_blk_dump_unregister_queue // -- Begin function hisi_blk_dump_unregister_queue
	.globl	hisi_blk_dump_unregister_queue
	.p2align	2
	.type	hisi_blk_dump_unregister_queue,@function
hisi_blk_dump_unregister_queue:         // @hisi_blk_dump_unregister_queue
.Lfunc_begin8:
	.loc	2 472 0                 // /mnt/disk/jenkins/ci/workspace/chipset_pipeline_release/opensource/component_code/vendor/huawei/extra/build/build_script/kirin_kernel_release/kernel/block/hisi-blk-dump.c:472:0
	.cfi_startproc
// %bb.0:
	str	x19, [sp, #-32]!        // 8-byte Folded Spill
	stp	x29, x30, [sp, #16]     // 16-byte Folded Spill
	add	x29, sp, #16            // =16
	.cfi_def_cfa w29, 16
	.cfi_offset w30, -8
	.cfi_offset w29, -16
	.cfi_offset w19, -32
	//DEBUG_VALUE: hisi_blk_dump_unregister_queue:q <- $x0
	mov	x19, x0
.Ltmp272:
	//DEBUG_VALUE: hisi_blk_dump_unregister_queue:q <- $x19
	.loc	131 317 2 prologue_end  // /mnt/disk/jenkins/ci/workspace/chipset_pipeline_release/opensource/component_code/vendor/huawei/extra/build/build_script/kirin_kernel_release/kernel/include/linux/spinlock.h:317:2
	adrp	x0, dump_list_lock
	add	x0, x0, :lo12:dump_list_lock
.Ltmp273:
	//DEBUG_VALUE: spin_lock:lock <- $x0
	bl	_raw_spin_lock
.Ltmp274:
	.loc	131 0 2 is_stmt 0       // /mnt/disk/jenkins/ci/workspace/chipset_pipeline_release/opensource/component_code/vendor/huawei/extra/build/build_script/kirin_kernel_release/kernel/include/linux/spinlock.h:0:2
	adrp	x9, dump_list
	add	x9, x9, :lo12:dump_list
.Ltmp275:
	//DEBUG_VALUE: hisi_blk_dump_unregister_queue:hisi_queue_backup <- [DW_OP_deref, DW_OP_deref, DW_OP_constu 160, DW_OP_minus, DW_OP_stack_value] $x9
	//DEBUG_VALUE: hisi_blk_dump_unregister_queue:hisi_queue <- [DW_OP_deref, DW_OP_constu 160, DW_OP_minus, DW_OP_stack_value] $x9
	mov	x8, x9
.Ltmp276:
.LBB8_1:                                // =>This Inner Loop Header: Depth=1
	//DEBUG_VALUE: hisi_blk_dump_unregister_queue:hisi_queue <- [DW_OP_deref, DW_OP_constu 160, DW_OP_minus, DW_OP_stack_value] $x9
	//DEBUG_VALUE: hisi_blk_dump_unregister_queue:hisi_queue_backup <- [DW_OP_deref, DW_OP_deref, DW_OP_constu 160, DW_OP_minus, DW_OP_stack_value] $x9
	//DEBUG_VALUE: hisi_blk_dump_unregister_queue:q <- $x19
	ldr	x8, [x8]
.Ltmp277:
	//DEBUG_VALUE: __mptr <- [DW_OP_constu 160, DW_OP_minus, DW_OP_stack_value] $x8
	//DEBUG_VALUE: list_del:entry <- $x8
	//DEBUG_VALUE: __list_del_entry:entry <- $x8
	.loc	2 478 2 is_stmt 1       // /mnt/disk/jenkins/ci/workspace/chipset_pipeline_release/opensource/component_code/vendor/huawei/extra/build/build_script/kirin_kernel_release/kernel/block/hisi-blk-dump.c:478:2
	cmp	x8, x9
	b.eq	.LBB8_4
.Ltmp278:
// %bb.2:                               //   in Loop: Header=BB8_1 Depth=1
	//DEBUG_VALUE: __mptr <- [DW_OP_constu 160, DW_OP_minus, DW_OP_stack_value] $x8
	//DEBUG_VALUE: hisi_blk_dump_unregister_queue:hisi_queue <- [DW_OP_deref, DW_OP_constu 160, DW_OP_minus, DW_OP_stack_value] $x9
	//DEBUG_VALUE: hisi_blk_dump_unregister_queue:hisi_queue_backup <- [DW_OP_deref, DW_OP_deref, DW_OP_constu 160, DW_OP_minus, DW_OP_stack_value] $x9
	//DEBUG_VALUE: hisi_blk_dump_unregister_queue:q <- $x19
	//DEBUG_VALUE: hisi_blk_dump_unregister_queue:hisi_queue_backup <- [DW_OP_deref, DW_OP_constu 160, DW_OP_minus, DW_OP_stack_value] $x8
	//DEBUG_VALUE: hisi_blk_dump_unregister_queue:q_node <- undef
	.loc	2 481 36                // /mnt/disk/jenkins/ci/workspace/chipset_pipeline_release/opensource/component_code/vendor/huawei/extra/build/build_script/kirin_kernel_release/kernel/block/hisi-blk-dump.c:481:36
	sub	x10, x8, #1696          // =1696
.Ltmp279:
	.loc	2 483 7                 // /mnt/disk/jenkins/ci/workspace/chipset_pipeline_release/opensource/component_code/vendor/huawei/extra/build/build_script/kirin_kernel_release/kernel/block/hisi-blk-dump.c:483:7
	cmp	x10, x19
	b.ne	.LBB8_1
.Ltmp280:
// %bb.3:
	//DEBUG_VALUE: hisi_blk_dump_unregister_queue:hisi_queue_backup <- [DW_OP_deref, DW_OP_constu 160, DW_OP_minus, DW_OP_stack_value] $x8
	//DEBUG_VALUE: hisi_blk_dump_unregister_queue:hisi_queue <- [DW_OP_deref, DW_OP_constu 160, DW_OP_minus, DW_OP_stack_value] $x9
	//DEBUG_VALUE: hisi_blk_dump_unregister_queue:q <- $x19
	.loc	132 120 33              // /mnt/disk/jenkins/ci/workspace/chipset_pipeline_release/opensource/component_code/vendor/huawei/extra/build/build_script/kirin_kernel_release/kernel/include/linux/list.h:120:33
	ldp	x9, x10, [x8]
.Ltmp281:
	.loc	132 0 33 is_stmt 0      // /mnt/disk/jenkins/ci/workspace/chipset_pipeline_release/opensource/component_code/vendor/huawei/extra/build/build_script/kirin_kernel_release/kernel/include/linux/list.h:0:33
	mov	x11, #256
	movk	x11, #57005, lsl #48
.Ltmp282:
	.loc	132 127 14 is_stmt 1    // /mnt/disk/jenkins/ci/workspace/chipset_pipeline_release/opensource/component_code/vendor/huawei/extra/build/build_script/kirin_kernel_release/kernel/include/linux/list.h:127:14
	add	x12, x11, #256          // =256
.Ltmp283:
	//DEBUG_VALUE: __list_del:prev <- $x10
	//DEBUG_VALUE: __list_del:next <- $x9
	.loc	132 105 13              // /mnt/disk/jenkins/ci/workspace/chipset_pipeline_release/opensource/component_code/vendor/huawei/extra/build/build_script/kirin_kernel_release/kernel/include/linux/list.h:105:13
	str	x10, [x9, #8]
.Ltmp284:
	//DEBUG_VALUE: __write_once_size:p <- $x10
	//DEBUG_VALUE: __write_once_size:size <- 8
	//DEBUG_VALUE: __write_once_size:res <- undef
	.loc	130 213 31              // /mnt/disk/jenkins/ci/workspace/chipset_pipeline_release/opensource/component_code/vendor/huawei/extra/build/build_script/kirin_kernel_release/kernel/include/linux/compiler.h:213:31
	str	x9, [x10]
.Ltmp285:
	.loc	132 126 14              // /mnt/disk/jenkins/ci/workspace/chipset_pipeline_release/opensource/component_code/vendor/huawei/extra/build/build_script/kirin_kernel_release/kernel/include/linux/list.h:126:14
	stp	x11, x12, [x8]
.Ltmp286:
.LBB8_4:
	//DEBUG_VALUE: hisi_blk_dump_unregister_queue:q <- $x19
	.loc	131 357 2               // /mnt/disk/jenkins/ci/workspace/chipset_pipeline_release/opensource/component_code/vendor/huawei/extra/build/build_script/kirin_kernel_release/kernel/include/linux/spinlock.h:357:2
	adrp	x0, dump_list_lock
	add	x0, x0, :lo12:dump_list_lock
.Ltmp287:
	//DEBUG_VALUE: spin_unlock:lock <- $x0
	bl	_raw_spin_unlock
.Ltmp288:
	.loc	2 489 1                 // /mnt/disk/jenkins/ci/workspace/chipset_pipeline_release/opensource/component_code/vendor/huawei/extra/build/build_script/kirin_kernel_release/kernel/block/hisi-blk-dump.c:489:1
	ldp	x29, x30, [sp, #16]     // 16-byte Folded Reload
	ldr	x19, [sp], #32          // 8-byte Folded Reload
.Ltmp289:
	ret
.Ltmp290:
.Lfunc_end8:
	.size	hisi_blk_dump_unregister_queue, .Lfunc_end8-hisi_blk_dump_unregister_queue
	.cfi_endproc
                                        // -- End function
	.section	.init.text,"ax",@progbits
	.hidden	hisi_blk_dump_init      // -- Begin function hisi_blk_dump_init
	.globl	hisi_blk_dump_init
	.p2align	2
	.type	hisi_blk_dump_init,@function
hisi_blk_dump_init:                     // @hisi_blk_dump_init
.Lfunc_begin9:
	.loc	2 497 0                 // /mnt/disk/jenkins/ci/workspace/chipset_pipeline_release/opensource/component_code/vendor/huawei/extra/build/build_script/kirin_kernel_release/kernel/block/hisi-blk-dump.c:497:0
	.cfi_startproc
// %bb.0:
	stp	x29, x30, [sp, #-16]!   // 16-byte Folded Spill
	mov	x29, sp
	.cfi_def_cfa w29, 16
	.cfi_offset w30, -8
	.cfi_offset w29, -16
.Ltmp291:
	.loc	2 498 2 prologue_end    // /mnt/disk/jenkins/ci/workspace/chipset_pipeline_release/opensource/component_code/vendor/huawei/extra/build/build_script/kirin_kernel_release/kernel/block/hisi-blk-dump.c:498:2
	adrp	x0, panic_notifier_list
	adrp	x1, hisi_blk_dump_nb
	add	x0, x0, :lo12:panic_notifier_list
	add	x1, x1, :lo12:hisi_blk_dump_nb
	bl	atomic_notifier_chain_register
	.loc	2 499 1                 // /mnt/disk/jenkins/ci/workspace/chipset_pipeline_release/opensource/component_code/vendor/huawei/extra/build/build_script/kirin_kernel_release/kernel/block/hisi-blk-dump.c:499:1
	ldp	x29, x30, [sp], #16     // 16-byte Folded Reload
	ret
.Ltmp292:
.Lfunc_end9:
	.size	hisi_blk_dump_init, .Lfunc_end9-hisi_blk_dump_init
	.cfi_endproc
                                        // -- End function
	.section	.text.blk_mq_tagset_dump_register,"ax",@progbits
	.hidden	blk_mq_tagset_dump_register // -- Begin function blk_mq_tagset_dump_register
	.globl	blk_mq_tagset_dump_register
	.p2align	2
	.type	blk_mq_tagset_dump_register,@function
blk_mq_tagset_dump_register:            // @blk_mq_tagset_dump_register
.Lfunc_begin10:
	.loc	2 505 0                 // /mnt/disk/jenkins/ci/workspace/chipset_pipeline_release/opensource/component_code/vendor/huawei/extra/build/build_script/kirin_kernel_release/kernel/block/hisi-blk-dump.c:505:0
	.cfi_startproc
// %bb.0:
	//DEBUG_VALUE: blk_mq_tagset_dump_register:tag_set <- $x0
	//DEBUG_VALUE: blk_mq_tagset_dump_register:tag_set <- $x0
	//DEBUG_VALUE: blk_mq_tagset_dump_register:func <- $x1
	//DEBUG_VALUE: blk_mq_tagset_dump_register:func <- $x1
	//DEBUG_VALUE: blk_mq_tagset_dump_register:blk_lld <- [DW_OP_plus_uconst 16, DW_OP_stack_value] $x0
	//DEBUG_VALUE: blk_mq_tagset_dump_register:blk_lld <- [DW_OP_plus_uconst 16, DW_OP_stack_value] $x0
	.loc	2 508 24 prologue_end   // /mnt/disk/jenkins/ci/workspace/chipset_pipeline_release/opensource/component_code/vendor/huawei/extra/build/build_script/kirin_kernel_release/kernel/block/hisi-blk-dump.c:508:24
	ldr	x8, [x0, #40]
	.loc	2 507 19                // /mnt/disk/jenkins/ci/workspace/chipset_pipeline_release/opensource/component_code/vendor/huawei/extra/build/build_script/kirin_kernel_release/kernel/block/hisi-blk-dump.c:507:19
	str	x1, [x0, #56]
	.loc	2 508 24                // /mnt/disk/jenkins/ci/workspace/chipset_pipeline_release/opensource/component_code/vendor/huawei/extra/build/build_script/kirin_kernel_release/kernel/block/hisi-blk-dump.c:508:24
	orr	x8, x8, #0x1
	str	x8, [x0, #40]
	.loc	2 509 1                 // /mnt/disk/jenkins/ci/workspace/chipset_pipeline_release/opensource/component_code/vendor/huawei/extra/build/build_script/kirin_kernel_release/kernel/block/hisi-blk-dump.c:509:1
	ret
.Ltmp293:
.Lfunc_end10:
	.size	blk_mq_tagset_dump_register, .Lfunc_end10-blk_mq_tagset_dump_register
	.cfi_endproc
                                        // -- End function
	.section	.text.blk_queue_dump_register,"ax",@progbits
	.hidden	blk_queue_dump_register // -- Begin function blk_queue_dump_register
	.globl	blk_queue_dump_register
	.p2align	2
	.type	blk_queue_dump_register,@function
blk_queue_dump_register:                // @blk_queue_dump_register
.Lfunc_begin11:
	.loc	2 516 0                 // /mnt/disk/jenkins/ci/workspace/chipset_pipeline_release/opensource/component_code/vendor/huawei/extra/build/build_script/kirin_kernel_release/kernel/block/hisi-blk-dump.c:516:0
	.cfi_startproc
// %bb.0:
	str	x21, [sp, #-48]!        // 8-byte Folded Spill
	stp	x20, x19, [sp, #16]     // 16-byte Folded Spill
	stp	x29, x30, [sp, #32]     // 16-byte Folded Spill
	add	x29, sp, #32            // =32
	.cfi_def_cfa w29, 16
	.cfi_offset w30, -8
	.cfi_offset w29, -16
	.cfi_offset w19, -24
	.cfi_offset w20, -32
	.cfi_offset w21, -48
	//DEBUG_VALUE: blk_queue_dump_register:q <- $x0
	//DEBUG_VALUE: blk_queue_dump_register:func <- $x1
.Ltmp294:
	//DEBUG_VALUE: hisi_blk_dump_register_queue:q <- $x0
	mov	x20, x1
	mov	x19, x0
.Ltmp295:
	//DEBUG_VALUE: blk_queue_dump_register:func <- $x20
	//DEBUG_VALUE: blk_queue_dump_register:q <- $x19
	.loc	2 517 32 prologue_end   // /mnt/disk/jenkins/ci/workspace/chipset_pipeline_release/opensource/component_code/vendor/huawei/extra/build/build_script/kirin_kernel_release/kernel/block/hisi-blk-dump.c:517:32
	bl	hisi_blk_get_lld
.Ltmp296:
	//DEBUG_VALUE: blk_queue_dump_register:blk_lld <- $x0
	.loc	2 519 24                // /mnt/disk/jenkins/ci/workspace/chipset_pipeline_release/opensource/component_code/vendor/huawei/extra/build/build_script/kirin_kernel_release/kernel/block/hisi-blk-dump.c:519:24
	ldr	x8, [x0, #24]
	.loc	2 518 19                // /mnt/disk/jenkins/ci/workspace/chipset_pipeline_release/opensource/component_code/vendor/huawei/extra/build/build_script/kirin_kernel_release/kernel/block/hisi-blk-dump.c:518:19
	str	x20, [x0, #40]
	.loc	2 519 24                // /mnt/disk/jenkins/ci/workspace/chipset_pipeline_release/opensource/component_code/vendor/huawei/extra/build/build_script/kirin_kernel_release/kernel/block/hisi-blk-dump.c:519:24
	orr	x8, x8, #0x1
	str	x8, [x0, #24]
.Ltmp297:
	//DEBUG_VALUE: hisi_blk_dump_register_queue:q <- $x19
	.loc	2 458 32                // /mnt/disk/jenkins/ci/workspace/chipset_pipeline_release/opensource/component_code/vendor/huawei/extra/build/build_script/kirin_kernel_release/kernel/block/hisi-blk-dump.c:458:32
	mov	x0, x19
.Ltmp298:
	bl	hisi_blk_get_lld
.Ltmp299:
	//DEBUG_VALUE: hisi_blk_dump_register_queue:blk_lld <- $x0
	.loc	2 459 6                 // /mnt/disk/jenkins/ci/workspace/chipset_pipeline_release/opensource/component_code/vendor/huawei/extra/build/build_script/kirin_kernel_release/kernel/block/hisi-blk-dump.c:459:6
	ldrb	w8, [x0, #24]
	tbz	w8, #0, .LBB11_3
.Ltmp300:
// %bb.1:
	//DEBUG_VALUE: hisi_blk_dump_register_queue:blk_lld <- $x0
	//DEBUG_VALUE: hisi_blk_dump_register_queue:q <- $x19
	//DEBUG_VALUE: blk_queue_dump_register:q <- $x19
	//DEBUG_VALUE: blk_queue_dump_register:func <- $x20
	.loc	130 186 2               // /mnt/disk/jenkins/ci/workspace/chipset_pipeline_release/opensource/component_code/vendor/huawei/extra/build/build_script/kirin_kernel_release/kernel/include/linux/compiler.h:186:2
	ldr	x8, [x19, #1696]
.Ltmp301:
	.loc	2 460 34                // /mnt/disk/jenkins/ci/workspace/chipset_pipeline_release/opensource/component_code/vendor/huawei/extra/build/build_script/kirin_kernel_release/kernel/block/hisi-blk-dump.c:460:34
	add	x21, x19, #1696         // =1696
.Ltmp302:
	//DEBUG_VALUE: __read_once_size:p <- $x21
	//DEBUG_VALUE: __read_once_size:size <- 8
	//DEBUG_VALUE: __read_once_size:res <- undef
	//DEBUG_VALUE: list_empty:head <- $x21
	//DEBUG_VALUE: list_add_tail:new <- $x21
	//DEBUG_VALUE: __list_add:new <- $x21
	.loc	2 460 7 is_stmt 0       // /mnt/disk/jenkins/ci/workspace/chipset_pipeline_release/opensource/component_code/vendor/huawei/extra/build/build_script/kirin_kernel_release/kernel/block/hisi-blk-dump.c:460:7
	cmp	x21, x8
	b.ne	.LBB11_3
.Ltmp303:
// %bb.2:
	//DEBUG_VALUE: __list_add:new <- $x21
	//DEBUG_VALUE: list_add_tail:new <- $x21
	//DEBUG_VALUE: hisi_blk_dump_register_queue:blk_lld <- $x0
	//DEBUG_VALUE: hisi_blk_dump_register_queue:q <- $x19
	//DEBUG_VALUE: blk_queue_dump_register:q <- $x19
	//DEBUG_VALUE: blk_queue_dump_register:func <- $x20
	.loc	131 317 2 is_stmt 1     // /mnt/disk/jenkins/ci/workspace/chipset_pipeline_release/opensource/component_code/vendor/huawei/extra/build/build_script/kirin_kernel_release/kernel/include/linux/spinlock.h:317:2
	adrp	x20, dump_list_lock
.Ltmp304:
	add	x20, x20, :lo12:dump_list_lock
.Ltmp305:
	//DEBUG_VALUE: spin_lock:lock <- $x20
	mov	x0, x20
.Ltmp306:
	bl	_raw_spin_lock
.Ltmp307:
	.loc	132 93 24               // /mnt/disk/jenkins/ci/workspace/chipset_pipeline_release/opensource/component_code/vendor/huawei/extra/build/build_script/kirin_kernel_release/kernel/include/linux/list.h:93:24
	adrp	x8, dump_list
	add	x8, x8, :lo12:dump_list
.Ltmp308:
	//DEBUG_VALUE: list_add_tail:head <- $x8
	ldr	x9, [x8, #8]
.Ltmp309:
	//DEBUG_VALUE: __write_once_size:res <- undef
	//DEBUG_VALUE: __list_add:prev <- $x9
	//DEBUG_VALUE: __list_add:next <- $x8
	.loc	131 357 2               // /mnt/disk/jenkins/ci/workspace/chipset_pipeline_release/opensource/component_code/vendor/huawei/extra/build/build_script/kirin_kernel_release/kernel/include/linux/spinlock.h:357:2
	mov	x0, x20
.Ltmp310:
	.loc	132 63 13               // /mnt/disk/jenkins/ci/workspace/chipset_pipeline_release/opensource/component_code/vendor/huawei/extra/build/build_script/kirin_kernel_release/kernel/include/linux/list.h:63:13
	str	x21, [x8, #8]
	.loc	132 64 12               // /mnt/disk/jenkins/ci/workspace/chipset_pipeline_release/opensource/component_code/vendor/huawei/extra/build/build_script/kirin_kernel_release/kernel/include/linux/list.h:64:12
	str	x8, [x19, #1696]
	.loc	132 65 12               // /mnt/disk/jenkins/ci/workspace/chipset_pipeline_release/opensource/component_code/vendor/huawei/extra/build/build_script/kirin_kernel_release/kernel/include/linux/list.h:65:12
	str	x9, [x19, #1704]
.Ltmp311:
	//DEBUG_VALUE: __write_once_size:p <- $x9
	//DEBUG_VALUE: __write_once_size:size <- 8
	.loc	130 213 31              // /mnt/disk/jenkins/ci/workspace/chipset_pipeline_release/opensource/component_code/vendor/huawei/extra/build/build_script/kirin_kernel_release/kernel/include/linux/compiler.h:213:31
	str	x21, [x9]
.Ltmp312:
	//DEBUG_VALUE: spin_unlock:lock <- $x20
	.loc	131 357 2               // /mnt/disk/jenkins/ci/workspace/chipset_pipeline_release/opensource/component_code/vendor/huawei/extra/build/build_script/kirin_kernel_release/kernel/include/linux/spinlock.h:357:2
	bl	_raw_spin_unlock
.Ltmp313:
.LBB11_3:
	//DEBUG_VALUE: blk_queue_dump_register:q <- $x19
	.loc	2 521 1                 // /mnt/disk/jenkins/ci/workspace/chipset_pipeline_release/opensource/component_code/vendor/huawei/extra/build/build_script/kirin_kernel_release/kernel/block/hisi-blk-dump.c:521:1
	ldp	x29, x30, [sp, #32]     // 16-byte Folded Reload
	ldp	x20, x19, [sp, #16]     // 16-byte Folded Reload
.Ltmp314:
	ldr	x21, [sp], #48          // 8-byte Folded Reload
	ret
.Ltmp315:
.Lfunc_end11:
	.size	blk_queue_dump_register, .Lfunc_end11-blk_queue_dump_register
	.cfi_endproc
                                        // -- End function
	.type	.L.str,@object          // @.str
	.section	.rodata.str1.1,"aMS",@progbits,1
.L.str:
	.asciz	"<%s:%llu> "
	.size	.L.str, 11

	.type	.L.str.1,@object        // @.str.1
.L.str.1:
	.asciz	"TYPE_BLOCK_PC"
	.size	.L.str.1, 14

	.type	.L.str.2,@object        // @.str.2
.L.str.2:
	.asciz	"TYPE_DRV_PRIV"
	.size	.L.str.2, 14

	.type	.L.str.3,@object        // @.str.3
.L.str.3:
	.asciz	"TYPE_FS"
	.size	.L.str.3, 8

	.type	.L.str.4,@object        // @.str.4
.L.str.4:
	.asciz	"\0013[BLK-IO]<%s> rq: 0x%pK type:%s len:%d %s requeue_reason = %d rq_hoq_flag = %llx rq_cp_flag = %llx dispatch pid: %d <%s>\n"
	.size	.L.str.4, 123

	.type	.L.str.5,@object        // @.str.5
.L.str.5:
	.asciz	"\0013[BLK-IO]<%s> rq: 0x%pK, type:%s len:%d %s requeue_reason = %d rq_hoq_flag = %llx rq_cp_flag = %llx \n"
	.size	.L.str.5, 103

	.type	.L.str.6,@object        // @.str.6
.L.str.6:
	.asciz	"\0013[BLK-IO]<%s> %s \n"
	.size	.L.str.6, 20

	.type	.L.str.7,@object        // @.str.7
.L.str.7:
	.asciz	"\0013[BLK-IO]<%s> bio: 0x%pK type:%s len:%d dispatch pid: %d <%s>, \n"
	.size	.L.str.7, 66

	.type	.L.str.8,@object        // @.str.8
.L.str.8:
	.asciz	"\0013[BLK-IO]<%s> bio: 0x%pK, type:%s len:%d\n"
	.size	.L.str.8, 43

	.type	.L.str.9,@object        // @.str.9
.L.str.9:
	.asciz	"\0013[BLK-IO]<%s> %s,current: %llu\n"
	.size	.L.str.9, 33

	.type	.L.str.10,@object       // @.str.10
.L.str.10:
	.asciz	"Queue Status:\n"
	.size	.L.str.10, 15

	.type	.L.str.11,@object       // @.str.11
.L.str.11:
	.asciz	"\0013[BLK-IO]%s"
	.size	.L.str.11, 13

	.type	.L.str.12,@object       // @.str.12
.L.str.12:
	.asciz	"IO Latency Waring: enable    Waring Threshold(ms): %u\n"
	.size	.L.str.12, 55

	.type	.L.str.13,@object       // @.str.13
.L.str.13:
	.asciz	"IO Latency Waring: disable \n"
	.size	.L.str.13, 29

	.type	.L.str.14,@object       // @.str.14
.L.str.14:
	.asciz	"Flush Reduce: %s \n"
	.size	.L.str.14, 19

	.type	.L.str.15,@object       // @.str.15
.L.str.15:
	.asciz	"enable"
	.size	.L.str.15, 7

	.type	.L.str.16,@object       // @.str.16
.L.str.16:
	.asciz	"disable"
	.size	.L.str.16, 8

	.type	.L.str.17,@object       // @.str.17
.L.str.17:
	.asciz	"\0013[BLK-IO]<%s> block device: %s, partition table: %s, read inflight = %d write inflight = %d\n"
	.size	.L.str.17, 94

	.type	.L.str.18,@object       // @.str.18
.L.str.18:
	.asciz	"exist"
	.size	.L.str.18, 6

	.type	.L.str.19,@object       // @.str.19
.L.str.19:
	.asciz	"none"
	.size	.L.str.19, 5

	.type	.L.str.20,@object       // @.str.20
.L.str.20:
	.asciz	"LLD Status:\n"
	.size	.L.str.20, 13

	.type	.L.str.21,@object       // @.str.21
.L.str.21:
	.asciz	"Panic Dump: %s \n"
	.size	.L.str.21, 17

	.type	.L.str.22,@object       // @.str.22
.L.str.22:
	.asciz	"IO Busy/Idle Notifier: %s   "
	.size	.L.str.22, 29

	.type	.L.str.23,@object       // @.str.23
.L.str.23:
	.asciz	"Current Status: BUSY  "
	.size	.L.str.23, 23

	.type	.L.str.24,@object       // @.str.24
.L.str.24:
	.asciz	"Current Status: IDLE   "
	.size	.L.str.24, 24

	.type	.L.str.25,@object       // @.str.25
.L.str.25:
	.asciz	"IO Count: %d \n"
	.size	.L.str.25, 15

	.type	.L.str.26,@object       // @.str.26
.L.str.26:
	.asciz	"Inline Crypto: %s \n"
	.size	.L.str.26, 20

	.type	.L.str.27,@object       // @.str.27
.L.str.27:
	.asciz	"IO Scheduler: "
	.size	.L.str.27, 15

	.type	.L.str.28,@object       // @.str.28
.L.str.28:
	.asciz	"HISI MQ IO Scheduler \n"
	.size	.L.str.28, 23

	.type	.L.str.29,@object       // @.str.29
.L.str.29:
	.asciz	"Default IO Scheduler \n"
	.size	.L.str.29, 23

	.type	.L.str.30,@object       // @.str.30
.L.str.30:
	.asciz	"UFS command priority: %s\n"
	.size	.L.str.30, 26

	.type	.L.str.31,@object       // @.str.31
.L.str.31:
	.asciz	"\0013[BLK-IO][%s]+ current = %llu \n"
	.size	.L.str.31, 33

	.type	.L__func__.hisi_blk_dump_panic_notify,@object // @__func__.hisi_blk_dump_panic_notify
.L__func__.hisi_blk_dump_panic_notify:
	.asciz	"hisi_blk_dump_panic_notify"
	.size	.L__func__.hisi_blk_dump_panic_notify, 27

	.type	.L.str.32,@object       // @.str.32
.L.str.32:
	.asciz	"\0013[BLK-IO][%s]-\n"
	.size	.L.str.32, 17

	.type	dump_list_lock,@object  // @dump_list_lock
	.section	.data.dump_list_lock,"aw",@progbits
	.p2align	3
dump_list_lock:
	.zero	4
	.word	3735899821              // 0xdead4ead
	.word	4294967295              // 0xffffffff
	.zero	4
	.xword	-1
	.size	dump_list_lock, 24

	.type	dump_list,@object       // @dump_list
	.section	.data.dump_list,"aw",@progbits
	.p2align	3
dump_list:
	.xword	dump_list
	.xword	dump_list
	.size	dump_list, 16

	.type	hisi_blk_dump_nb,@object // @hisi_blk_dump_nb
	.section	.data.hisi_blk_dump_nb,"aw",@progbits
	.p2align	3
hisi_blk_dump_nb:
	.xword	__cfi_hisi_blk_dump_panic_notify
	.xword	0
	.word	0                       // 0x0
	.zero	4
	.size	hisi_blk_dump_nb, 24

	.type	__kstrtab_blk_mq_tagset_dump_register,@object // @__kstrtab_blk_mq_tagset_dump_register
	.section	__ksymtab_strings,"a",@progbits
__kstrtab_blk_mq_tagset_dump_register:
	.asciz	"blk_mq_tagset_dump_register"
	.size	__kstrtab_blk_mq_tagset_dump_register, 28

	.type	__ksymtab_blk_mq_tagset_dump_register,@object // @__ksymtab_blk_mq_tagset_dump_register
	.section	"___ksymtab+blk_mq_tagset_dump_register","a",@progbits
	.p2align	3
__ksymtab_blk_mq_tagset_dump_register:
	.xword	blk_mq_tagset_dump_register
	.xword	__kstrtab_blk_mq_tagset_dump_register
	.size	__ksymtab_blk_mq_tagset_dump_register, 16

	.type	__kstrtab_blk_queue_dump_register,@object // @__kstrtab_blk_queue_dump_register
	.section	__ksymtab_strings,"a",@progbits
__kstrtab_blk_queue_dump_register:
	.asciz	"blk_queue_dump_register"
	.size	__kstrtab_blk_queue_dump_register, 24

	.type	__ksymtab_blk_queue_dump_register,@object // @__ksymtab_blk_queue_dump_register
	.section	"___ksymtab+blk_queue_dump_register","a",@progbits
	.p2align	3
__ksymtab_blk_queue_dump_register:
	.xword	blk_queue_dump_register
	.xword	__kstrtab_blk_queue_dump_register
	.size	__ksymtab_blk_queue_dump_register, 16

	.type	.L.str.33,@object       // @.str.33
	.section	.rodata.str1.1,"aMS",@progbits,1
.L.str.33:
	.asciz	"dump"
	.size	.L.str.33, 5
